(lp0
(lp1
S'HD1K/hd1k_flow_gt/flow_occ/000000_0010.png'
p2
aS'HD1K/hd1k_flow_gt/flow_occ/000000_0011.png'
p3
aS'HD1K/hd1k_flow_gt/flow_occ/000000_0012.png'
p4
aS'HD1K/hd1k_flow_gt/flow_occ/000000_0013.png'
p5
aS'HD1K/hd1k_flow_gt/flow_occ/000000_0014.png'
p6
aS'HD1K/hd1k_flow_gt/flow_occ/000000_0015.png'
p7
aS'HD1K/hd1k_flow_gt/flow_occ/000000_0016.png'
p8
aS'HD1K/hd1k_flow_gt/flow_occ/000000_0017.png'
p9
aS'HD1K/hd1k_flow_gt/flow_occ/000000_0018.png'
p10
aS'HD1K/hd1k_flow_gt/flow_occ/000000_0019.png'
p11
aS'HD1K/hd1k_flow_gt/flow_occ/000000_0020.png'
p12
aS'HD1K/hd1k_flow_gt/flow_occ/000000_0021.png'
p13
aS'HD1K/hd1k_flow_gt/flow_occ/000000_0022.png'
p14
aS'HD1K/hd1k_flow_gt/flow_occ/000000_0023.png'
p15
aS'HD1K/hd1k_flow_gt/flow_occ/000000_0024.png'
p16
aS'HD1K/hd1k_flow_gt/flow_occ/000000_0025.png'
p17
aS'HD1K/hd1k_flow_gt/flow_occ/000000_0026.png'
p18
aS'HD1K/hd1k_flow_gt/flow_occ/000000_0027.png'
p19
aS'HD1K/hd1k_flow_gt/flow_occ/000000_0028.png'
p20
aS'HD1K/hd1k_flow_gt/flow_occ/000000_0029.png'
p21
aS'HD1K/hd1k_flow_gt/flow_occ/000000_0030.png'
p22
aS'HD1K/hd1k_flow_gt/flow_occ/000000_0031.png'
p23
aS'HD1K/hd1k_flow_gt/flow_occ/000000_0032.png'
p24
aS'HD1K/hd1k_flow_gt/flow_occ/000000_0033.png'
p25
aS'HD1K/hd1k_flow_gt/flow_occ/000000_0034.png'
p26
aS'HD1K/hd1k_flow_gt/flow_occ/000000_0035.png'
p27
aS'HD1K/hd1k_flow_gt/flow_occ/000000_0036.png'
p28
aS'HD1K/hd1k_flow_gt/flow_occ/000000_0037.png'
p29
aS'HD1K/hd1k_flow_gt/flow_occ/000000_0038.png'
p30
aS'HD1K/hd1k_flow_gt/flow_occ/000000_0039.png'
p31
aS'HD1K/hd1k_flow_gt/flow_occ/000000_0040.png'
p32
aS'HD1K/hd1k_flow_gt/flow_occ/000000_0041.png'
p33
aS'HD1K/hd1k_flow_gt/flow_occ/000000_0042.png'
p34
aS'HD1K/hd1k_flow_gt/flow_occ/000000_0043.png'
p35
aS'HD1K/hd1k_flow_gt/flow_occ/000000_0044.png'
p36
aS'HD1K/hd1k_flow_gt/flow_occ/000000_0045.png'
p37
aS'HD1K/hd1k_flow_gt/flow_occ/000000_0046.png'
p38
aS'HD1K/hd1k_flow_gt/flow_occ/000000_0047.png'
p39
aS'HD1K/hd1k_flow_gt/flow_occ/000000_0048.png'
p40
aS'HD1K/hd1k_flow_gt/flow_occ/000000_0049.png'
p41
aS'HD1K/hd1k_flow_gt/flow_occ/000000_0050.png'
p42
aS'HD1K/hd1k_flow_gt/flow_occ/000000_0051.png'
p43
aS'HD1K/hd1k_flow_gt/flow_occ/000000_0052.png'
p44
aS'HD1K/hd1k_flow_gt/flow_occ/000000_0053.png'
p45
aS'HD1K/hd1k_flow_gt/flow_occ/000000_0054.png'
p46
aa(lp47
S'HD1K/hd1k_flow_gt/flow_occ/000001_0010.png'
p48
aS'HD1K/hd1k_flow_gt/flow_occ/000001_0011.png'
p49
aS'HD1K/hd1k_flow_gt/flow_occ/000001_0012.png'
p50
aS'HD1K/hd1k_flow_gt/flow_occ/000001_0013.png'
p51
aS'HD1K/hd1k_flow_gt/flow_occ/000001_0014.png'
p52
aS'HD1K/hd1k_flow_gt/flow_occ/000001_0015.png'
p53
aS'HD1K/hd1k_flow_gt/flow_occ/000001_0016.png'
p54
aS'HD1K/hd1k_flow_gt/flow_occ/000001_0017.png'
p55
aS'HD1K/hd1k_flow_gt/flow_occ/000001_0018.png'
p56
aS'HD1K/hd1k_flow_gt/flow_occ/000001_0019.png'
p57
aa(lp58
S'HD1K/hd1k_flow_gt/flow_occ/000002_0010.png'
p59
aS'HD1K/hd1k_flow_gt/flow_occ/000002_0011.png'
p60
aS'HD1K/hd1k_flow_gt/flow_occ/000002_0012.png'
p61
aS'HD1K/hd1k_flow_gt/flow_occ/000002_0013.png'
p62
aS'HD1K/hd1k_flow_gt/flow_occ/000002_0014.png'
p63
aS'HD1K/hd1k_flow_gt/flow_occ/000002_0015.png'
p64
aS'HD1K/hd1k_flow_gt/flow_occ/000002_0016.png'
p65
aS'HD1K/hd1k_flow_gt/flow_occ/000002_0017.png'
p66
aS'HD1K/hd1k_flow_gt/flow_occ/000002_0018.png'
p67
aa(lp68
S'HD1K/hd1k_flow_gt/flow_occ/000003_0010.png'
p69
aS'HD1K/hd1k_flow_gt/flow_occ/000003_0011.png'
p70
aS'HD1K/hd1k_flow_gt/flow_occ/000003_0012.png'
p71
aS'HD1K/hd1k_flow_gt/flow_occ/000003_0013.png'
p72
aS'HD1K/hd1k_flow_gt/flow_occ/000003_0014.png'
p73
aS'HD1K/hd1k_flow_gt/flow_occ/000003_0015.png'
p74
aS'HD1K/hd1k_flow_gt/flow_occ/000003_0016.png'
p75
aS'HD1K/hd1k_flow_gt/flow_occ/000003_0017.png'
p76
aS'HD1K/hd1k_flow_gt/flow_occ/000003_0018.png'
p77
aa(lp78
S'HD1K/hd1k_flow_gt/flow_occ/000004_0010.png'
p79
aS'HD1K/hd1k_flow_gt/flow_occ/000004_0011.png'
p80
aS'HD1K/hd1k_flow_gt/flow_occ/000004_0012.png'
p81
aS'HD1K/hd1k_flow_gt/flow_occ/000004_0013.png'
p82
aS'HD1K/hd1k_flow_gt/flow_occ/000004_0014.png'
p83
aS'HD1K/hd1k_flow_gt/flow_occ/000004_0015.png'
p84
aS'HD1K/hd1k_flow_gt/flow_occ/000004_0016.png'
p85
aS'HD1K/hd1k_flow_gt/flow_occ/000004_0017.png'
p86
aS'HD1K/hd1k_flow_gt/flow_occ/000004_0018.png'
p87
aS'HD1K/hd1k_flow_gt/flow_occ/000004_0019.png'
p88
aS'HD1K/hd1k_flow_gt/flow_occ/000004_0020.png'
p89
aS'HD1K/hd1k_flow_gt/flow_occ/000004_0021.png'
p90
aS'HD1K/hd1k_flow_gt/flow_occ/000004_0022.png'
p91
aS'HD1K/hd1k_flow_gt/flow_occ/000004_0023.png'
p92
aa(lp93
S'HD1K/hd1k_flow_gt/flow_occ/000005_0010.png'
p94
aS'HD1K/hd1k_flow_gt/flow_occ/000005_0011.png'
p95
aS'HD1K/hd1k_flow_gt/flow_occ/000005_0012.png'
p96
aS'HD1K/hd1k_flow_gt/flow_occ/000005_0013.png'
p97
aS'HD1K/hd1k_flow_gt/flow_occ/000005_0014.png'
p98
aS'HD1K/hd1k_flow_gt/flow_occ/000005_0015.png'
p99
aS'HD1K/hd1k_flow_gt/flow_occ/000005_0016.png'
p100
aS'HD1K/hd1k_flow_gt/flow_occ/000005_0017.png'
p101
aS'HD1K/hd1k_flow_gt/flow_occ/000005_0018.png'
p102
aa(lp103
S'HD1K/hd1k_flow_gt/flow_occ/000006_0010.png'
p104
aS'HD1K/hd1k_flow_gt/flow_occ/000006_0011.png'
p105
aS'HD1K/hd1k_flow_gt/flow_occ/000006_0012.png'
p106
aS'HD1K/hd1k_flow_gt/flow_occ/000006_0013.png'
p107
aS'HD1K/hd1k_flow_gt/flow_occ/000006_0014.png'
p108
aS'HD1K/hd1k_flow_gt/flow_occ/000006_0015.png'
p109
aS'HD1K/hd1k_flow_gt/flow_occ/000006_0016.png'
p110
aS'HD1K/hd1k_flow_gt/flow_occ/000006_0017.png'
p111
aS'HD1K/hd1k_flow_gt/flow_occ/000006_0018.png'
p112
aS'HD1K/hd1k_flow_gt/flow_occ/000006_0019.png'
p113
aS'HD1K/hd1k_flow_gt/flow_occ/000006_0020.png'
p114
aS'HD1K/hd1k_flow_gt/flow_occ/000006_0021.png'
p115
aS'HD1K/hd1k_flow_gt/flow_occ/000006_0022.png'
p116
aa(lp117
S'HD1K/hd1k_flow_gt/flow_occ/000007_0010.png'
p118
aS'HD1K/hd1k_flow_gt/flow_occ/000007_0011.png'
p119
aS'HD1K/hd1k_flow_gt/flow_occ/000007_0012.png'
p120
aS'HD1K/hd1k_flow_gt/flow_occ/000007_0013.png'
p121
aS'HD1K/hd1k_flow_gt/flow_occ/000007_0014.png'
p122
aS'HD1K/hd1k_flow_gt/flow_occ/000007_0015.png'
p123
aS'HD1K/hd1k_flow_gt/flow_occ/000007_0016.png'
p124
aS'HD1K/hd1k_flow_gt/flow_occ/000007_0017.png'
p125
aS'HD1K/hd1k_flow_gt/flow_occ/000007_0018.png'
p126
aS'HD1K/hd1k_flow_gt/flow_occ/000007_0019.png'
p127
aS'HD1K/hd1k_flow_gt/flow_occ/000007_0020.png'
p128
aS'HD1K/hd1k_flow_gt/flow_occ/000007_0021.png'
p129
aS'HD1K/hd1k_flow_gt/flow_occ/000007_0022.png'
p130
aS'HD1K/hd1k_flow_gt/flow_occ/000007_0023.png'
p131
aS'HD1K/hd1k_flow_gt/flow_occ/000007_0024.png'
p132
aS'HD1K/hd1k_flow_gt/flow_occ/000007_0025.png'
p133
aS'HD1K/hd1k_flow_gt/flow_occ/000007_0026.png'
p134
aS'HD1K/hd1k_flow_gt/flow_occ/000007_0027.png'
p135
aS'HD1K/hd1k_flow_gt/flow_occ/000007_0028.png'
p136
aS'HD1K/hd1k_flow_gt/flow_occ/000007_0029.png'
p137
aS'HD1K/hd1k_flow_gt/flow_occ/000007_0030.png'
p138
aS'HD1K/hd1k_flow_gt/flow_occ/000007_0031.png'
p139
aS'HD1K/hd1k_flow_gt/flow_occ/000007_0032.png'
p140
aS'HD1K/hd1k_flow_gt/flow_occ/000007_0033.png'
p141
aS'HD1K/hd1k_flow_gt/flow_occ/000007_0034.png'
p142
aS'HD1K/hd1k_flow_gt/flow_occ/000007_0035.png'
p143
aS'HD1K/hd1k_flow_gt/flow_occ/000007_0036.png'
p144
aS'HD1K/hd1k_flow_gt/flow_occ/000007_0037.png'
p145
aS'HD1K/hd1k_flow_gt/flow_occ/000007_0038.png'
p146
aS'HD1K/hd1k_flow_gt/flow_occ/000007_0039.png'
p147
aS'HD1K/hd1k_flow_gt/flow_occ/000007_0040.png'
p148
aS'HD1K/hd1k_flow_gt/flow_occ/000007_0041.png'
p149
aS'HD1K/hd1k_flow_gt/flow_occ/000007_0042.png'
p150
aS'HD1K/hd1k_flow_gt/flow_occ/000007_0043.png'
p151
aS'HD1K/hd1k_flow_gt/flow_occ/000007_0044.png'
p152
aS'HD1K/hd1k_flow_gt/flow_occ/000007_0045.png'
p153
aS'HD1K/hd1k_flow_gt/flow_occ/000007_0046.png'
p154
aS'HD1K/hd1k_flow_gt/flow_occ/000007_0047.png'
p155
aS'HD1K/hd1k_flow_gt/flow_occ/000007_0048.png'
p156
aS'HD1K/hd1k_flow_gt/flow_occ/000007_0049.png'
p157
aS'HD1K/hd1k_flow_gt/flow_occ/000007_0050.png'
p158
aS'HD1K/hd1k_flow_gt/flow_occ/000007_0051.png'
p159
aS'HD1K/hd1k_flow_gt/flow_occ/000007_0052.png'
p160
aS'HD1K/hd1k_flow_gt/flow_occ/000007_0053.png'
p161
aS'HD1K/hd1k_flow_gt/flow_occ/000007_0054.png'
p162
aS'HD1K/hd1k_flow_gt/flow_occ/000007_0055.png'
p163
aS'HD1K/hd1k_flow_gt/flow_occ/000007_0056.png'
p164
aS'HD1K/hd1k_flow_gt/flow_occ/000007_0057.png'
p165
aS'HD1K/hd1k_flow_gt/flow_occ/000007_0058.png'
p166
aS'HD1K/hd1k_flow_gt/flow_occ/000007_0059.png'
p167
aS'HD1K/hd1k_flow_gt/flow_occ/000007_0060.png'
p168
aS'HD1K/hd1k_flow_gt/flow_occ/000007_0061.png'
p169
aS'HD1K/hd1k_flow_gt/flow_occ/000007_0062.png'
p170
aS'HD1K/hd1k_flow_gt/flow_occ/000007_0063.png'
p171
aS'HD1K/hd1k_flow_gt/flow_occ/000007_0064.png'
p172
aS'HD1K/hd1k_flow_gt/flow_occ/000007_0065.png'
p173
aS'HD1K/hd1k_flow_gt/flow_occ/000007_0066.png'
p174
aS'HD1K/hd1k_flow_gt/flow_occ/000007_0067.png'
p175
aS'HD1K/hd1k_flow_gt/flow_occ/000007_0068.png'
p176
aS'HD1K/hd1k_flow_gt/flow_occ/000007_0069.png'
p177
aS'HD1K/hd1k_flow_gt/flow_occ/000007_0070.png'
p178
aS'HD1K/hd1k_flow_gt/flow_occ/000007_0071.png'
p179
aS'HD1K/hd1k_flow_gt/flow_occ/000007_0072.png'
p180
aS'HD1K/hd1k_flow_gt/flow_occ/000007_0073.png'
p181
aS'HD1K/hd1k_flow_gt/flow_occ/000007_0074.png'
p182
aS'HD1K/hd1k_flow_gt/flow_occ/000007_0075.png'
p183
aS'HD1K/hd1k_flow_gt/flow_occ/000007_0076.png'
p184
aa(lp185
S'HD1K/hd1k_flow_gt/flow_occ/000008_0010.png'
p186
aS'HD1K/hd1k_flow_gt/flow_occ/000008_0011.png'
p187
aS'HD1K/hd1k_flow_gt/flow_occ/000008_0012.png'
p188
aS'HD1K/hd1k_flow_gt/flow_occ/000008_0013.png'
p189
aS'HD1K/hd1k_flow_gt/flow_occ/000008_0014.png'
p190
aS'HD1K/hd1k_flow_gt/flow_occ/000008_0015.png'
p191
aS'HD1K/hd1k_flow_gt/flow_occ/000008_0016.png'
p192
aS'HD1K/hd1k_flow_gt/flow_occ/000008_0017.png'
p193
aS'HD1K/hd1k_flow_gt/flow_occ/000008_0018.png'
p194
aS'HD1K/hd1k_flow_gt/flow_occ/000008_0019.png'
p195
aS'HD1K/hd1k_flow_gt/flow_occ/000008_0020.png'
p196
aS'HD1K/hd1k_flow_gt/flow_occ/000008_0021.png'
p197
aS'HD1K/hd1k_flow_gt/flow_occ/000008_0022.png'
p198
aS'HD1K/hd1k_flow_gt/flow_occ/000008_0023.png'
p199
aS'HD1K/hd1k_flow_gt/flow_occ/000008_0024.png'
p200
aS'HD1K/hd1k_flow_gt/flow_occ/000008_0025.png'
p201
aS'HD1K/hd1k_flow_gt/flow_occ/000008_0026.png'
p202
aS'HD1K/hd1k_flow_gt/flow_occ/000008_0027.png'
p203
aS'HD1K/hd1k_flow_gt/flow_occ/000008_0028.png'
p204
aS'HD1K/hd1k_flow_gt/flow_occ/000008_0029.png'
p205
aS'HD1K/hd1k_flow_gt/flow_occ/000008_0030.png'
p206
aS'HD1K/hd1k_flow_gt/flow_occ/000008_0031.png'
p207
aS'HD1K/hd1k_flow_gt/flow_occ/000008_0032.png'
p208
aS'HD1K/hd1k_flow_gt/flow_occ/000008_0033.png'
p209
aS'HD1K/hd1k_flow_gt/flow_occ/000008_0034.png'
p210
aS'HD1K/hd1k_flow_gt/flow_occ/000008_0035.png'
p211
aS'HD1K/hd1k_flow_gt/flow_occ/000008_0036.png'
p212
aS'HD1K/hd1k_flow_gt/flow_occ/000008_0037.png'
p213
aS'HD1K/hd1k_flow_gt/flow_occ/000008_0038.png'
p214
aS'HD1K/hd1k_flow_gt/flow_occ/000008_0039.png'
p215
aS'HD1K/hd1k_flow_gt/flow_occ/000008_0040.png'
p216
aS'HD1K/hd1k_flow_gt/flow_occ/000008_0041.png'
p217
aS'HD1K/hd1k_flow_gt/flow_occ/000008_0042.png'
p218
aS'HD1K/hd1k_flow_gt/flow_occ/000008_0043.png'
p219
aS'HD1K/hd1k_flow_gt/flow_occ/000008_0044.png'
p220
aS'HD1K/hd1k_flow_gt/flow_occ/000008_0045.png'
p221
aS'HD1K/hd1k_flow_gt/flow_occ/000008_0046.png'
p222
aS'HD1K/hd1k_flow_gt/flow_occ/000008_0047.png'
p223
aS'HD1K/hd1k_flow_gt/flow_occ/000008_0048.png'
p224
aa(lp225
S'HD1K/hd1k_flow_gt/flow_occ/000009_0010.png'
p226
aS'HD1K/hd1k_flow_gt/flow_occ/000009_0011.png'
p227
aS'HD1K/hd1k_flow_gt/flow_occ/000009_0012.png'
p228
aS'HD1K/hd1k_flow_gt/flow_occ/000009_0013.png'
p229
aS'HD1K/hd1k_flow_gt/flow_occ/000009_0014.png'
p230
aS'HD1K/hd1k_flow_gt/flow_occ/000009_0015.png'
p231
aS'HD1K/hd1k_flow_gt/flow_occ/000009_0016.png'
p232
aS'HD1K/hd1k_flow_gt/flow_occ/000009_0017.png'
p233
aS'HD1K/hd1k_flow_gt/flow_occ/000009_0018.png'
p234
aS'HD1K/hd1k_flow_gt/flow_occ/000009_0019.png'
p235
aS'HD1K/hd1k_flow_gt/flow_occ/000009_0020.png'
p236
aS'HD1K/hd1k_flow_gt/flow_occ/000009_0021.png'
p237
aS'HD1K/hd1k_flow_gt/flow_occ/000009_0022.png'
p238
aS'HD1K/hd1k_flow_gt/flow_occ/000009_0023.png'
p239
aS'HD1K/hd1k_flow_gt/flow_occ/000009_0024.png'
p240
aS'HD1K/hd1k_flow_gt/flow_occ/000009_0025.png'
p241
aS'HD1K/hd1k_flow_gt/flow_occ/000009_0026.png'
p242
aa(lp243
S'HD1K/hd1k_flow_gt/flow_occ/000010_0010.png'
p244
aS'HD1K/hd1k_flow_gt/flow_occ/000010_0011.png'
p245
aS'HD1K/hd1k_flow_gt/flow_occ/000010_0012.png'
p246
aS'HD1K/hd1k_flow_gt/flow_occ/000010_0013.png'
p247
aS'HD1K/hd1k_flow_gt/flow_occ/000010_0014.png'
p248
aS'HD1K/hd1k_flow_gt/flow_occ/000010_0015.png'
p249
aS'HD1K/hd1k_flow_gt/flow_occ/000010_0016.png'
p250
aS'HD1K/hd1k_flow_gt/flow_occ/000010_0017.png'
p251
aS'HD1K/hd1k_flow_gt/flow_occ/000010_0018.png'
p252
aS'HD1K/hd1k_flow_gt/flow_occ/000010_0019.png'
p253
aS'HD1K/hd1k_flow_gt/flow_occ/000010_0020.png'
p254
aS'HD1K/hd1k_flow_gt/flow_occ/000010_0021.png'
p255
aS'HD1K/hd1k_flow_gt/flow_occ/000010_0022.png'
p256
aS'HD1K/hd1k_flow_gt/flow_occ/000010_0023.png'
p257
aS'HD1K/hd1k_flow_gt/flow_occ/000010_0024.png'
p258
aS'HD1K/hd1k_flow_gt/flow_occ/000010_0025.png'
p259
aS'HD1K/hd1k_flow_gt/flow_occ/000010_0026.png'
p260
aS'HD1K/hd1k_flow_gt/flow_occ/000010_0027.png'
p261
aS'HD1K/hd1k_flow_gt/flow_occ/000010_0028.png'
p262
aS'HD1K/hd1k_flow_gt/flow_occ/000010_0029.png'
p263
aS'HD1K/hd1k_flow_gt/flow_occ/000010_0030.png'
p264
aS'HD1K/hd1k_flow_gt/flow_occ/000010_0031.png'
p265
aS'HD1K/hd1k_flow_gt/flow_occ/000010_0032.png'
p266
aS'HD1K/hd1k_flow_gt/flow_occ/000010_0033.png'
p267
aS'HD1K/hd1k_flow_gt/flow_occ/000010_0034.png'
p268
aS'HD1K/hd1k_flow_gt/flow_occ/000010_0035.png'
p269
aS'HD1K/hd1k_flow_gt/flow_occ/000010_0036.png'
p270
aa(lp271
S'HD1K/hd1k_flow_gt/flow_occ/000011_0010.png'
p272
aS'HD1K/hd1k_flow_gt/flow_occ/000011_0011.png'
p273
aS'HD1K/hd1k_flow_gt/flow_occ/000011_0012.png'
p274
aS'HD1K/hd1k_flow_gt/flow_occ/000011_0013.png'
p275
aS'HD1K/hd1k_flow_gt/flow_occ/000011_0014.png'
p276
aS'HD1K/hd1k_flow_gt/flow_occ/000011_0015.png'
p277
aS'HD1K/hd1k_flow_gt/flow_occ/000011_0016.png'
p278
aS'HD1K/hd1k_flow_gt/flow_occ/000011_0017.png'
p279
aS'HD1K/hd1k_flow_gt/flow_occ/000011_0018.png'
p280
aS'HD1K/hd1k_flow_gt/flow_occ/000011_0019.png'
p281
aS'HD1K/hd1k_flow_gt/flow_occ/000011_0020.png'
p282
aS'HD1K/hd1k_flow_gt/flow_occ/000011_0021.png'
p283
aS'HD1K/hd1k_flow_gt/flow_occ/000011_0022.png'
p284
aS'HD1K/hd1k_flow_gt/flow_occ/000011_0023.png'
p285
aS'HD1K/hd1k_flow_gt/flow_occ/000011_0024.png'
p286
aS'HD1K/hd1k_flow_gt/flow_occ/000011_0025.png'
p287
aS'HD1K/hd1k_flow_gt/flow_occ/000011_0026.png'
p288
aS'HD1K/hd1k_flow_gt/flow_occ/000011_0027.png'
p289
aS'HD1K/hd1k_flow_gt/flow_occ/000011_0028.png'
p290
aS'HD1K/hd1k_flow_gt/flow_occ/000011_0029.png'
p291
aS'HD1K/hd1k_flow_gt/flow_occ/000011_0030.png'
p292
aS'HD1K/hd1k_flow_gt/flow_occ/000011_0031.png'
p293
aS'HD1K/hd1k_flow_gt/flow_occ/000011_0032.png'
p294
aS'HD1K/hd1k_flow_gt/flow_occ/000011_0033.png'
p295
aS'HD1K/hd1k_flow_gt/flow_occ/000011_0034.png'
p296
aS'HD1K/hd1k_flow_gt/flow_occ/000011_0035.png'
p297
aS'HD1K/hd1k_flow_gt/flow_occ/000011_0036.png'
p298
aS'HD1K/hd1k_flow_gt/flow_occ/000011_0037.png'
p299
aS'HD1K/hd1k_flow_gt/flow_occ/000011_0038.png'
p300
aS'HD1K/hd1k_flow_gt/flow_occ/000011_0039.png'
p301
aS'HD1K/hd1k_flow_gt/flow_occ/000011_0040.png'
p302
aS'HD1K/hd1k_flow_gt/flow_occ/000011_0041.png'
p303
aS'HD1K/hd1k_flow_gt/flow_occ/000011_0042.png'
p304
aS'HD1K/hd1k_flow_gt/flow_occ/000011_0043.png'
p305
aS'HD1K/hd1k_flow_gt/flow_occ/000011_0044.png'
p306
aS'HD1K/hd1k_flow_gt/flow_occ/000011_0045.png'
p307
aS'HD1K/hd1k_flow_gt/flow_occ/000011_0046.png'
p308
aS'HD1K/hd1k_flow_gt/flow_occ/000011_0047.png'
p309
aS'HD1K/hd1k_flow_gt/flow_occ/000011_0048.png'
p310
aS'HD1K/hd1k_flow_gt/flow_occ/000011_0049.png'
p311
aS'HD1K/hd1k_flow_gt/flow_occ/000011_0050.png'
p312
aS'HD1K/hd1k_flow_gt/flow_occ/000011_0051.png'
p313
aS'HD1K/hd1k_flow_gt/flow_occ/000011_0052.png'
p314
aS'HD1K/hd1k_flow_gt/flow_occ/000011_0053.png'
p315
aS'HD1K/hd1k_flow_gt/flow_occ/000011_0054.png'
p316
aS'HD1K/hd1k_flow_gt/flow_occ/000011_0055.png'
p317
aS'HD1K/hd1k_flow_gt/flow_occ/000011_0056.png'
p318
aS'HD1K/hd1k_flow_gt/flow_occ/000011_0057.png'
p319
aS'HD1K/hd1k_flow_gt/flow_occ/000011_0058.png'
p320
aS'HD1K/hd1k_flow_gt/flow_occ/000011_0059.png'
p321
aS'HD1K/hd1k_flow_gt/flow_occ/000011_0060.png'
p322
aS'HD1K/hd1k_flow_gt/flow_occ/000011_0061.png'
p323
aS'HD1K/hd1k_flow_gt/flow_occ/000011_0062.png'
p324
aS'HD1K/hd1k_flow_gt/flow_occ/000011_0063.png'
p325
aS'HD1K/hd1k_flow_gt/flow_occ/000011_0064.png'
p326
aS'HD1K/hd1k_flow_gt/flow_occ/000011_0065.png'
p327
aS'HD1K/hd1k_flow_gt/flow_occ/000011_0066.png'
p328
aS'HD1K/hd1k_flow_gt/flow_occ/000011_0067.png'
p329
aS'HD1K/hd1k_flow_gt/flow_occ/000011_0068.png'
p330
aS'HD1K/hd1k_flow_gt/flow_occ/000011_0069.png'
p331
aS'HD1K/hd1k_flow_gt/flow_occ/000011_0070.png'
p332
aS'HD1K/hd1k_flow_gt/flow_occ/000011_0071.png'
p333
aS'HD1K/hd1k_flow_gt/flow_occ/000011_0072.png'
p334
aS'HD1K/hd1k_flow_gt/flow_occ/000011_0073.png'
p335
aS'HD1K/hd1k_flow_gt/flow_occ/000011_0074.png'
p336
aS'HD1K/hd1k_flow_gt/flow_occ/000011_0075.png'
p337
aS'HD1K/hd1k_flow_gt/flow_occ/000011_0076.png'
p338
aS'HD1K/hd1k_flow_gt/flow_occ/000011_0077.png'
p339
aS'HD1K/hd1k_flow_gt/flow_occ/000011_0078.png'
p340
aa(lp341
S'HD1K/hd1k_flow_gt/flow_occ/000012_0010.png'
p342
aS'HD1K/hd1k_flow_gt/flow_occ/000012_0011.png'
p343
aS'HD1K/hd1k_flow_gt/flow_occ/000012_0012.png'
p344
aS'HD1K/hd1k_flow_gt/flow_occ/000012_0013.png'
p345
aS'HD1K/hd1k_flow_gt/flow_occ/000012_0014.png'
p346
aS'HD1K/hd1k_flow_gt/flow_occ/000012_0015.png'
p347
aS'HD1K/hd1k_flow_gt/flow_occ/000012_0016.png'
p348
aS'HD1K/hd1k_flow_gt/flow_occ/000012_0017.png'
p349
aS'HD1K/hd1k_flow_gt/flow_occ/000012_0018.png'
p350
aS'HD1K/hd1k_flow_gt/flow_occ/000012_0019.png'
p351
aS'HD1K/hd1k_flow_gt/flow_occ/000012_0020.png'
p352
aS'HD1K/hd1k_flow_gt/flow_occ/000012_0021.png'
p353
aS'HD1K/hd1k_flow_gt/flow_occ/000012_0022.png'
p354
aS'HD1K/hd1k_flow_gt/flow_occ/000012_0023.png'
p355
aS'HD1K/hd1k_flow_gt/flow_occ/000012_0024.png'
p356
aS'HD1K/hd1k_flow_gt/flow_occ/000012_0025.png'
p357
aS'HD1K/hd1k_flow_gt/flow_occ/000012_0026.png'
p358
aS'HD1K/hd1k_flow_gt/flow_occ/000012_0027.png'
p359
aS'HD1K/hd1k_flow_gt/flow_occ/000012_0028.png'
p360
aS'HD1K/hd1k_flow_gt/flow_occ/000012_0029.png'
p361
aS'HD1K/hd1k_flow_gt/flow_occ/000012_0030.png'
p362
aS'HD1K/hd1k_flow_gt/flow_occ/000012_0031.png'
p363
aS'HD1K/hd1k_flow_gt/flow_occ/000012_0032.png'
p364
aS'HD1K/hd1k_flow_gt/flow_occ/000012_0033.png'
p365
aS'HD1K/hd1k_flow_gt/flow_occ/000012_0034.png'
p366
aS'HD1K/hd1k_flow_gt/flow_occ/000012_0035.png'
p367
aS'HD1K/hd1k_flow_gt/flow_occ/000012_0036.png'
p368
aS'HD1K/hd1k_flow_gt/flow_occ/000012_0037.png'
p369
aS'HD1K/hd1k_flow_gt/flow_occ/000012_0038.png'
p370
aS'HD1K/hd1k_flow_gt/flow_occ/000012_0039.png'
p371
aS'HD1K/hd1k_flow_gt/flow_occ/000012_0040.png'
p372
aS'HD1K/hd1k_flow_gt/flow_occ/000012_0041.png'
p373
aS'HD1K/hd1k_flow_gt/flow_occ/000012_0042.png'
p374
aS'HD1K/hd1k_flow_gt/flow_occ/000012_0043.png'
p375
aS'HD1K/hd1k_flow_gt/flow_occ/000012_0044.png'
p376
aS'HD1K/hd1k_flow_gt/flow_occ/000012_0045.png'
p377
aS'HD1K/hd1k_flow_gt/flow_occ/000012_0046.png'
p378
aS'HD1K/hd1k_flow_gt/flow_occ/000012_0047.png'
p379
aS'HD1K/hd1k_flow_gt/flow_occ/000012_0048.png'
p380
aS'HD1K/hd1k_flow_gt/flow_occ/000012_0049.png'
p381
aS'HD1K/hd1k_flow_gt/flow_occ/000012_0050.png'
p382
aS'HD1K/hd1k_flow_gt/flow_occ/000012_0051.png'
p383
aS'HD1K/hd1k_flow_gt/flow_occ/000012_0052.png'
p384
aS'HD1K/hd1k_flow_gt/flow_occ/000012_0053.png'
p385
aS'HD1K/hd1k_flow_gt/flow_occ/000012_0054.png'
p386
aS'HD1K/hd1k_flow_gt/flow_occ/000012_0055.png'
p387
aS'HD1K/hd1k_flow_gt/flow_occ/000012_0056.png'
p388
aS'HD1K/hd1k_flow_gt/flow_occ/000012_0057.png'
p389
aS'HD1K/hd1k_flow_gt/flow_occ/000012_0058.png'
p390
aS'HD1K/hd1k_flow_gt/flow_occ/000012_0059.png'
p391
aS'HD1K/hd1k_flow_gt/flow_occ/000012_0060.png'
p392
aS'HD1K/hd1k_flow_gt/flow_occ/000012_0061.png'
p393
aS'HD1K/hd1k_flow_gt/flow_occ/000012_0062.png'
p394
aS'HD1K/hd1k_flow_gt/flow_occ/000012_0063.png'
p395
aS'HD1K/hd1k_flow_gt/flow_occ/000012_0064.png'
p396
aS'HD1K/hd1k_flow_gt/flow_occ/000012_0065.png'
p397
aS'HD1K/hd1k_flow_gt/flow_occ/000012_0066.png'
p398
aS'HD1K/hd1k_flow_gt/flow_occ/000012_0067.png'
p399
aS'HD1K/hd1k_flow_gt/flow_occ/000012_0068.png'
p400
aS'HD1K/hd1k_flow_gt/flow_occ/000012_0069.png'
p401
aS'HD1K/hd1k_flow_gt/flow_occ/000012_0070.png'
p402
aS'HD1K/hd1k_flow_gt/flow_occ/000012_0071.png'
p403
aS'HD1K/hd1k_flow_gt/flow_occ/000012_0072.png'
p404
aS'HD1K/hd1k_flow_gt/flow_occ/000012_0073.png'
p405
aS'HD1K/hd1k_flow_gt/flow_occ/000012_0074.png'
p406
aS'HD1K/hd1k_flow_gt/flow_occ/000012_0075.png'
p407
aS'HD1K/hd1k_flow_gt/flow_occ/000012_0076.png'
p408
aS'HD1K/hd1k_flow_gt/flow_occ/000012_0077.png'
p409
aS'HD1K/hd1k_flow_gt/flow_occ/000012_0078.png'
p410
aS'HD1K/hd1k_flow_gt/flow_occ/000012_0079.png'
p411
aa(lp412
S'HD1K/hd1k_flow_gt/flow_occ/000013_0010.png'
p413
aS'HD1K/hd1k_flow_gt/flow_occ/000013_0011.png'
p414
aS'HD1K/hd1k_flow_gt/flow_occ/000013_0012.png'
p415
aS'HD1K/hd1k_flow_gt/flow_occ/000013_0013.png'
p416
aS'HD1K/hd1k_flow_gt/flow_occ/000013_0014.png'
p417
aS'HD1K/hd1k_flow_gt/flow_occ/000013_0015.png'
p418
aS'HD1K/hd1k_flow_gt/flow_occ/000013_0016.png'
p419
aS'HD1K/hd1k_flow_gt/flow_occ/000013_0017.png'
p420
aS'HD1K/hd1k_flow_gt/flow_occ/000013_0018.png'
p421
aS'HD1K/hd1k_flow_gt/flow_occ/000013_0019.png'
p422
aS'HD1K/hd1k_flow_gt/flow_occ/000013_0020.png'
p423
aS'HD1K/hd1k_flow_gt/flow_occ/000013_0021.png'
p424
aS'HD1K/hd1k_flow_gt/flow_occ/000013_0022.png'
p425
aS'HD1K/hd1k_flow_gt/flow_occ/000013_0023.png'
p426
aS'HD1K/hd1k_flow_gt/flow_occ/000013_0024.png'
p427
aS'HD1K/hd1k_flow_gt/flow_occ/000013_0025.png'
p428
aS'HD1K/hd1k_flow_gt/flow_occ/000013_0026.png'
p429
aS'HD1K/hd1k_flow_gt/flow_occ/000013_0027.png'
p430
aS'HD1K/hd1k_flow_gt/flow_occ/000013_0028.png'
p431
aS'HD1K/hd1k_flow_gt/flow_occ/000013_0029.png'
p432
aS'HD1K/hd1k_flow_gt/flow_occ/000013_0030.png'
p433
aS'HD1K/hd1k_flow_gt/flow_occ/000013_0031.png'
p434
aS'HD1K/hd1k_flow_gt/flow_occ/000013_0032.png'
p435
aS'HD1K/hd1k_flow_gt/flow_occ/000013_0033.png'
p436
aS'HD1K/hd1k_flow_gt/flow_occ/000013_0034.png'
p437
aS'HD1K/hd1k_flow_gt/flow_occ/000013_0035.png'
p438
aa(lp439
S'HD1K/hd1k_flow_gt/flow_occ/000014_0010.png'
p440
aS'HD1K/hd1k_flow_gt/flow_occ/000014_0011.png'
p441
aS'HD1K/hd1k_flow_gt/flow_occ/000014_0012.png'
p442
aS'HD1K/hd1k_flow_gt/flow_occ/000014_0013.png'
p443
aS'HD1K/hd1k_flow_gt/flow_occ/000014_0014.png'
p444
aS'HD1K/hd1k_flow_gt/flow_occ/000014_0015.png'
p445
aS'HD1K/hd1k_flow_gt/flow_occ/000014_0016.png'
p446
aS'HD1K/hd1k_flow_gt/flow_occ/000014_0017.png'
p447
aS'HD1K/hd1k_flow_gt/flow_occ/000014_0018.png'
p448
aa(lp449
S'HD1K/hd1k_flow_gt/flow_occ/000015_0010.png'
p450
aS'HD1K/hd1k_flow_gt/flow_occ/000015_0011.png'
p451
aS'HD1K/hd1k_flow_gt/flow_occ/000015_0012.png'
p452
aS'HD1K/hd1k_flow_gt/flow_occ/000015_0013.png'
p453
aS'HD1K/hd1k_flow_gt/flow_occ/000015_0014.png'
p454
aS'HD1K/hd1k_flow_gt/flow_occ/000015_0015.png'
p455
aS'HD1K/hd1k_flow_gt/flow_occ/000015_0016.png'
p456
aS'HD1K/hd1k_flow_gt/flow_occ/000015_0017.png'
p457
aS'HD1K/hd1k_flow_gt/flow_occ/000015_0018.png'
p458
aS'HD1K/hd1k_flow_gt/flow_occ/000015_0019.png'
p459
aS'HD1K/hd1k_flow_gt/flow_occ/000015_0020.png'
p460
aS'HD1K/hd1k_flow_gt/flow_occ/000015_0021.png'
p461
aS'HD1K/hd1k_flow_gt/flow_occ/000015_0022.png'
p462
aS'HD1K/hd1k_flow_gt/flow_occ/000015_0023.png'
p463
aa(lp464
S'HD1K/hd1k_flow_gt/flow_occ/000016_0010.png'
p465
aS'HD1K/hd1k_flow_gt/flow_occ/000016_0011.png'
p466
aS'HD1K/hd1k_flow_gt/flow_occ/000016_0012.png'
p467
aS'HD1K/hd1k_flow_gt/flow_occ/000016_0013.png'
p468
aS'HD1K/hd1k_flow_gt/flow_occ/000016_0014.png'
p469
aS'HD1K/hd1k_flow_gt/flow_occ/000016_0015.png'
p470
aS'HD1K/hd1k_flow_gt/flow_occ/000016_0016.png'
p471
aS'HD1K/hd1k_flow_gt/flow_occ/000016_0017.png'
p472
aS'HD1K/hd1k_flow_gt/flow_occ/000016_0018.png'
p473
aS'HD1K/hd1k_flow_gt/flow_occ/000016_0019.png'
p474
aS'HD1K/hd1k_flow_gt/flow_occ/000016_0020.png'
p475
aS'HD1K/hd1k_flow_gt/flow_occ/000016_0021.png'
p476
aS'HD1K/hd1k_flow_gt/flow_occ/000016_0022.png'
p477
aS'HD1K/hd1k_flow_gt/flow_occ/000016_0023.png'
p478
aS'HD1K/hd1k_flow_gt/flow_occ/000016_0024.png'
p479
aS'HD1K/hd1k_flow_gt/flow_occ/000016_0025.png'
p480
aS'HD1K/hd1k_flow_gt/flow_occ/000016_0026.png'
p481
aS'HD1K/hd1k_flow_gt/flow_occ/000016_0027.png'
p482
aS'HD1K/hd1k_flow_gt/flow_occ/000016_0028.png'
p483
aS'HD1K/hd1k_flow_gt/flow_occ/000016_0029.png'
p484
aS'HD1K/hd1k_flow_gt/flow_occ/000016_0030.png'
p485
aS'HD1K/hd1k_flow_gt/flow_occ/000016_0031.png'
p486
aS'HD1K/hd1k_flow_gt/flow_occ/000016_0032.png'
p487
aS'HD1K/hd1k_flow_gt/flow_occ/000016_0033.png'
p488
aS'HD1K/hd1k_flow_gt/flow_occ/000016_0034.png'
p489
aS'HD1K/hd1k_flow_gt/flow_occ/000016_0035.png'
p490
aS'HD1K/hd1k_flow_gt/flow_occ/000016_0036.png'
p491
aS'HD1K/hd1k_flow_gt/flow_occ/000016_0037.png'
p492
aS'HD1K/hd1k_flow_gt/flow_occ/000016_0038.png'
p493
aS'HD1K/hd1k_flow_gt/flow_occ/000016_0039.png'
p494
aS'HD1K/hd1k_flow_gt/flow_occ/000016_0040.png'
p495
aS'HD1K/hd1k_flow_gt/flow_occ/000016_0041.png'
p496
aS'HD1K/hd1k_flow_gt/flow_occ/000016_0042.png'
p497
aS'HD1K/hd1k_flow_gt/flow_occ/000016_0043.png'
p498
aS'HD1K/hd1k_flow_gt/flow_occ/000016_0044.png'
p499
aS'HD1K/hd1k_flow_gt/flow_occ/000016_0045.png'
p500
aS'HD1K/hd1k_flow_gt/flow_occ/000016_0046.png'
p501
aS'HD1K/hd1k_flow_gt/flow_occ/000016_0047.png'
p502
aS'HD1K/hd1k_flow_gt/flow_occ/000016_0048.png'
p503
aS'HD1K/hd1k_flow_gt/flow_occ/000016_0049.png'
p504
aS'HD1K/hd1k_flow_gt/flow_occ/000016_0050.png'
p505
aS'HD1K/hd1k_flow_gt/flow_occ/000016_0051.png'
p506
aS'HD1K/hd1k_flow_gt/flow_occ/000016_0052.png'
p507
aS'HD1K/hd1k_flow_gt/flow_occ/000016_0053.png'
p508
aS'HD1K/hd1k_flow_gt/flow_occ/000016_0054.png'
p509
aS'HD1K/hd1k_flow_gt/flow_occ/000016_0055.png'
p510
aS'HD1K/hd1k_flow_gt/flow_occ/000016_0056.png'
p511
aS'HD1K/hd1k_flow_gt/flow_occ/000016_0057.png'
p512
aS'HD1K/hd1k_flow_gt/flow_occ/000016_0058.png'
p513
aS'HD1K/hd1k_flow_gt/flow_occ/000016_0059.png'
p514
aS'HD1K/hd1k_flow_gt/flow_occ/000016_0060.png'
p515
aS'HD1K/hd1k_flow_gt/flow_occ/000016_0061.png'
p516
aS'HD1K/hd1k_flow_gt/flow_occ/000016_0062.png'
p517
aS'HD1K/hd1k_flow_gt/flow_occ/000016_0063.png'
p518
aS'HD1K/hd1k_flow_gt/flow_occ/000016_0064.png'
p519
aS'HD1K/hd1k_flow_gt/flow_occ/000016_0065.png'
p520
aS'HD1K/hd1k_flow_gt/flow_occ/000016_0066.png'
p521
aS'HD1K/hd1k_flow_gt/flow_occ/000016_0067.png'
p522
aS'HD1K/hd1k_flow_gt/flow_occ/000016_0068.png'
p523
aS'HD1K/hd1k_flow_gt/flow_occ/000016_0069.png'
p524
aS'HD1K/hd1k_flow_gt/flow_occ/000016_0070.png'
p525
aS'HD1K/hd1k_flow_gt/flow_occ/000016_0071.png'
p526
aS'HD1K/hd1k_flow_gt/flow_occ/000016_0072.png'
p527
aS'HD1K/hd1k_flow_gt/flow_occ/000016_0073.png'
p528
aS'HD1K/hd1k_flow_gt/flow_occ/000016_0074.png'
p529
aS'HD1K/hd1k_flow_gt/flow_occ/000016_0075.png'
p530
aS'HD1K/hd1k_flow_gt/flow_occ/000016_0076.png'
p531
aS'HD1K/hd1k_flow_gt/flow_occ/000016_0077.png'
p532
aS'HD1K/hd1k_flow_gt/flow_occ/000016_0078.png'
p533
aa(lp534
S'HD1K/hd1k_flow_gt/flow_occ/000017_0010.png'
p535
aS'HD1K/hd1k_flow_gt/flow_occ/000017_0011.png'
p536
aS'HD1K/hd1k_flow_gt/flow_occ/000017_0012.png'
p537
aS'HD1K/hd1k_flow_gt/flow_occ/000017_0013.png'
p538
aS'HD1K/hd1k_flow_gt/flow_occ/000017_0014.png'
p539
aS'HD1K/hd1k_flow_gt/flow_occ/000017_0015.png'
p540
aS'HD1K/hd1k_flow_gt/flow_occ/000017_0016.png'
p541
aS'HD1K/hd1k_flow_gt/flow_occ/000017_0017.png'
p542
aS'HD1K/hd1k_flow_gt/flow_occ/000017_0018.png'
p543
aS'HD1K/hd1k_flow_gt/flow_occ/000017_0019.png'
p544
aS'HD1K/hd1k_flow_gt/flow_occ/000017_0020.png'
p545
aS'HD1K/hd1k_flow_gt/flow_occ/000017_0021.png'
p546
aS'HD1K/hd1k_flow_gt/flow_occ/000017_0022.png'
p547
aS'HD1K/hd1k_flow_gt/flow_occ/000017_0023.png'
p548
aS'HD1K/hd1k_flow_gt/flow_occ/000017_0024.png'
p549
aS'HD1K/hd1k_flow_gt/flow_occ/000017_0025.png'
p550
aS'HD1K/hd1k_flow_gt/flow_occ/000017_0026.png'
p551
aS'HD1K/hd1k_flow_gt/flow_occ/000017_0027.png'
p552
aS'HD1K/hd1k_flow_gt/flow_occ/000017_0028.png'
p553
aS'HD1K/hd1k_flow_gt/flow_occ/000017_0029.png'
p554
aS'HD1K/hd1k_flow_gt/flow_occ/000017_0030.png'
p555
aS'HD1K/hd1k_flow_gt/flow_occ/000017_0031.png'
p556
aS'HD1K/hd1k_flow_gt/flow_occ/000017_0032.png'
p557
aS'HD1K/hd1k_flow_gt/flow_occ/000017_0033.png'
p558
aS'HD1K/hd1k_flow_gt/flow_occ/000017_0034.png'
p559
aS'HD1K/hd1k_flow_gt/flow_occ/000017_0035.png'
p560
aS'HD1K/hd1k_flow_gt/flow_occ/000017_0036.png'
p561
aS'HD1K/hd1k_flow_gt/flow_occ/000017_0037.png'
p562
aS'HD1K/hd1k_flow_gt/flow_occ/000017_0038.png'
p563
aS'HD1K/hd1k_flow_gt/flow_occ/000017_0039.png'
p564
aS'HD1K/hd1k_flow_gt/flow_occ/000017_0040.png'
p565
aS'HD1K/hd1k_flow_gt/flow_occ/000017_0041.png'
p566
aS'HD1K/hd1k_flow_gt/flow_occ/000017_0042.png'
p567
aS'HD1K/hd1k_flow_gt/flow_occ/000017_0043.png'
p568
aS'HD1K/hd1k_flow_gt/flow_occ/000017_0044.png'
p569
aa(lp570
S'HD1K/hd1k_flow_gt/flow_occ/000018_0010.png'
p571
aS'HD1K/hd1k_flow_gt/flow_occ/000018_0011.png'
p572
aS'HD1K/hd1k_flow_gt/flow_occ/000018_0012.png'
p573
aS'HD1K/hd1k_flow_gt/flow_occ/000018_0013.png'
p574
aS'HD1K/hd1k_flow_gt/flow_occ/000018_0014.png'
p575
aS'HD1K/hd1k_flow_gt/flow_occ/000018_0015.png'
p576
aS'HD1K/hd1k_flow_gt/flow_occ/000018_0016.png'
p577
aS'HD1K/hd1k_flow_gt/flow_occ/000018_0017.png'
p578
aS'HD1K/hd1k_flow_gt/flow_occ/000018_0018.png'
p579
aS'HD1K/hd1k_flow_gt/flow_occ/000018_0019.png'
p580
aS'HD1K/hd1k_flow_gt/flow_occ/000018_0020.png'
p581
aS'HD1K/hd1k_flow_gt/flow_occ/000018_0021.png'
p582
aS'HD1K/hd1k_flow_gt/flow_occ/000018_0022.png'
p583
aS'HD1K/hd1k_flow_gt/flow_occ/000018_0023.png'
p584
aS'HD1K/hd1k_flow_gt/flow_occ/000018_0024.png'
p585
aS'HD1K/hd1k_flow_gt/flow_occ/000018_0025.png'
p586
aS'HD1K/hd1k_flow_gt/flow_occ/000018_0026.png'
p587
aS'HD1K/hd1k_flow_gt/flow_occ/000018_0027.png'
p588
aS'HD1K/hd1k_flow_gt/flow_occ/000018_0028.png'
p589
aS'HD1K/hd1k_flow_gt/flow_occ/000018_0029.png'
p590
aS'HD1K/hd1k_flow_gt/flow_occ/000018_0030.png'
p591
aS'HD1K/hd1k_flow_gt/flow_occ/000018_0031.png'
p592
aS'HD1K/hd1k_flow_gt/flow_occ/000018_0032.png'
p593
aS'HD1K/hd1k_flow_gt/flow_occ/000018_0033.png'
p594
aS'HD1K/hd1k_flow_gt/flow_occ/000018_0034.png'
p595
aS'HD1K/hd1k_flow_gt/flow_occ/000018_0035.png'
p596
aa(lp597
S'HD1K/hd1k_flow_gt/flow_occ/000019_0010.png'
p598
aS'HD1K/hd1k_flow_gt/flow_occ/000019_0011.png'
p599
aS'HD1K/hd1k_flow_gt/flow_occ/000019_0012.png'
p600
aS'HD1K/hd1k_flow_gt/flow_occ/000019_0013.png'
p601
aS'HD1K/hd1k_flow_gt/flow_occ/000019_0014.png'
p602
aS'HD1K/hd1k_flow_gt/flow_occ/000019_0015.png'
p603
aS'HD1K/hd1k_flow_gt/flow_occ/000019_0016.png'
p604
aS'HD1K/hd1k_flow_gt/flow_occ/000019_0017.png'
p605
aS'HD1K/hd1k_flow_gt/flow_occ/000019_0018.png'
p606
aS'HD1K/hd1k_flow_gt/flow_occ/000019_0019.png'
p607
aS'HD1K/hd1k_flow_gt/flow_occ/000019_0020.png'
p608
aS'HD1K/hd1k_flow_gt/flow_occ/000019_0021.png'
p609
aS'HD1K/hd1k_flow_gt/flow_occ/000019_0022.png'
p610
aS'HD1K/hd1k_flow_gt/flow_occ/000019_0023.png'
p611
aS'HD1K/hd1k_flow_gt/flow_occ/000019_0024.png'
p612
aa(lp613
S'HD1K/hd1k_flow_gt/flow_occ/000020_0010.png'
p614
aS'HD1K/hd1k_flow_gt/flow_occ/000020_0011.png'
p615
aS'HD1K/hd1k_flow_gt/flow_occ/000020_0012.png'
p616
aS'HD1K/hd1k_flow_gt/flow_occ/000020_0013.png'
p617
aS'HD1K/hd1k_flow_gt/flow_occ/000020_0014.png'
p618
aS'HD1K/hd1k_flow_gt/flow_occ/000020_0015.png'
p619
aS'HD1K/hd1k_flow_gt/flow_occ/000020_0016.png'
p620
aS'HD1K/hd1k_flow_gt/flow_occ/000020_0017.png'
p621
aS'HD1K/hd1k_flow_gt/flow_occ/000020_0018.png'
p622
aS'HD1K/hd1k_flow_gt/flow_occ/000020_0019.png'
p623
aS'HD1K/hd1k_flow_gt/flow_occ/000020_0020.png'
p624
aS'HD1K/hd1k_flow_gt/flow_occ/000020_0021.png'
p625
aS'HD1K/hd1k_flow_gt/flow_occ/000020_0022.png'
p626
aS'HD1K/hd1k_flow_gt/flow_occ/000020_0023.png'
p627
aS'HD1K/hd1k_flow_gt/flow_occ/000020_0024.png'
p628
aS'HD1K/hd1k_flow_gt/flow_occ/000020_0025.png'
p629
aS'HD1K/hd1k_flow_gt/flow_occ/000020_0026.png'
p630
aS'HD1K/hd1k_flow_gt/flow_occ/000020_0027.png'
p631
aS'HD1K/hd1k_flow_gt/flow_occ/000020_0028.png'
p632
aS'HD1K/hd1k_flow_gt/flow_occ/000020_0029.png'
p633
aS'HD1K/hd1k_flow_gt/flow_occ/000020_0030.png'
p634
aS'HD1K/hd1k_flow_gt/flow_occ/000020_0031.png'
p635
aS'HD1K/hd1k_flow_gt/flow_occ/000020_0032.png'
p636
aS'HD1K/hd1k_flow_gt/flow_occ/000020_0033.png'
p637
aS'HD1K/hd1k_flow_gt/flow_occ/000020_0034.png'
p638
aS'HD1K/hd1k_flow_gt/flow_occ/000020_0035.png'
p639
aS'HD1K/hd1k_flow_gt/flow_occ/000020_0036.png'
p640
aS'HD1K/hd1k_flow_gt/flow_occ/000020_0037.png'
p641
aS'HD1K/hd1k_flow_gt/flow_occ/000020_0038.png'
p642
aS'HD1K/hd1k_flow_gt/flow_occ/000020_0039.png'
p643
aS'HD1K/hd1k_flow_gt/flow_occ/000020_0040.png'
p644
aS'HD1K/hd1k_flow_gt/flow_occ/000020_0041.png'
p645
aS'HD1K/hd1k_flow_gt/flow_occ/000020_0042.png'
p646
aS'HD1K/hd1k_flow_gt/flow_occ/000020_0043.png'
p647
aS'HD1K/hd1k_flow_gt/flow_occ/000020_0044.png'
p648
aS'HD1K/hd1k_flow_gt/flow_occ/000020_0045.png'
p649
aS'HD1K/hd1k_flow_gt/flow_occ/000020_0046.png'
p650
aS'HD1K/hd1k_flow_gt/flow_occ/000020_0047.png'
p651
aS'HD1K/hd1k_flow_gt/flow_occ/000020_0048.png'
p652
aS'HD1K/hd1k_flow_gt/flow_occ/000020_0049.png'
p653
aS'HD1K/hd1k_flow_gt/flow_occ/000020_0050.png'
p654
aS'HD1K/hd1k_flow_gt/flow_occ/000020_0051.png'
p655
aS'HD1K/hd1k_flow_gt/flow_occ/000020_0052.png'
p656
aS'HD1K/hd1k_flow_gt/flow_occ/000020_0053.png'
p657
aS'HD1K/hd1k_flow_gt/flow_occ/000020_0054.png'
p658
aa(lp659
S'HD1K/hd1k_flow_gt/flow_occ/000021_0010.png'
p660
aS'HD1K/hd1k_flow_gt/flow_occ/000021_0011.png'
p661
aS'HD1K/hd1k_flow_gt/flow_occ/000021_0012.png'
p662
aS'HD1K/hd1k_flow_gt/flow_occ/000021_0013.png'
p663
aS'HD1K/hd1k_flow_gt/flow_occ/000021_0014.png'
p664
aS'HD1K/hd1k_flow_gt/flow_occ/000021_0015.png'
p665
aS'HD1K/hd1k_flow_gt/flow_occ/000021_0016.png'
p666
aS'HD1K/hd1k_flow_gt/flow_occ/000021_0017.png'
p667
aS'HD1K/hd1k_flow_gt/flow_occ/000021_0018.png'
p668
aS'HD1K/hd1k_flow_gt/flow_occ/000021_0019.png'
p669
aa(lp670
S'HD1K/hd1k_flow_gt/flow_occ/000022_0010.png'
p671
aS'HD1K/hd1k_flow_gt/flow_occ/000022_0011.png'
p672
aS'HD1K/hd1k_flow_gt/flow_occ/000022_0012.png'
p673
aS'HD1K/hd1k_flow_gt/flow_occ/000022_0013.png'
p674
aS'HD1K/hd1k_flow_gt/flow_occ/000022_0014.png'
p675
aS'HD1K/hd1k_flow_gt/flow_occ/000022_0015.png'
p676
aS'HD1K/hd1k_flow_gt/flow_occ/000022_0016.png'
p677
aS'HD1K/hd1k_flow_gt/flow_occ/000022_0017.png'
p678
aS'HD1K/hd1k_flow_gt/flow_occ/000022_0018.png'
p679
aa(lp680
S'HD1K/hd1k_flow_gt/flow_occ/000023_0010.png'
p681
aS'HD1K/hd1k_flow_gt/flow_occ/000023_0011.png'
p682
aS'HD1K/hd1k_flow_gt/flow_occ/000023_0012.png'
p683
aS'HD1K/hd1k_flow_gt/flow_occ/000023_0013.png'
p684
aS'HD1K/hd1k_flow_gt/flow_occ/000023_0014.png'
p685
aS'HD1K/hd1k_flow_gt/flow_occ/000023_0015.png'
p686
aS'HD1K/hd1k_flow_gt/flow_occ/000023_0016.png'
p687
aS'HD1K/hd1k_flow_gt/flow_occ/000023_0017.png'
p688
aS'HD1K/hd1k_flow_gt/flow_occ/000023_0018.png'
p689
aS'HD1K/hd1k_flow_gt/flow_occ/000023_0019.png'
p690
aS'HD1K/hd1k_flow_gt/flow_occ/000023_0020.png'
p691
aS'HD1K/hd1k_flow_gt/flow_occ/000023_0021.png'
p692
aS'HD1K/hd1k_flow_gt/flow_occ/000023_0022.png'
p693
aS'HD1K/hd1k_flow_gt/flow_occ/000023_0023.png'
p694
aS'HD1K/hd1k_flow_gt/flow_occ/000023_0024.png'
p695
aS'HD1K/hd1k_flow_gt/flow_occ/000023_0025.png'
p696
aS'HD1K/hd1k_flow_gt/flow_occ/000023_0026.png'
p697
aS'HD1K/hd1k_flow_gt/flow_occ/000023_0027.png'
p698
aS'HD1K/hd1k_flow_gt/flow_occ/000023_0028.png'
p699
aS'HD1K/hd1k_flow_gt/flow_occ/000023_0029.png'
p700
aS'HD1K/hd1k_flow_gt/flow_occ/000023_0030.png'
p701
aS'HD1K/hd1k_flow_gt/flow_occ/000023_0031.png'
p702
aS'HD1K/hd1k_flow_gt/flow_occ/000023_0032.png'
p703
aS'HD1K/hd1k_flow_gt/flow_occ/000023_0033.png'
p704
aS'HD1K/hd1k_flow_gt/flow_occ/000023_0034.png'
p705
aS'HD1K/hd1k_flow_gt/flow_occ/000023_0035.png'
p706
aS'HD1K/hd1k_flow_gt/flow_occ/000023_0036.png'
p707
aS'HD1K/hd1k_flow_gt/flow_occ/000023_0037.png'
p708
aS'HD1K/hd1k_flow_gt/flow_occ/000023_0038.png'
p709
aS'HD1K/hd1k_flow_gt/flow_occ/000023_0039.png'
p710
aS'HD1K/hd1k_flow_gt/flow_occ/000023_0040.png'
p711
aS'HD1K/hd1k_flow_gt/flow_occ/000023_0041.png'
p712
aS'HD1K/hd1k_flow_gt/flow_occ/000023_0042.png'
p713
aS'HD1K/hd1k_flow_gt/flow_occ/000023_0043.png'
p714
aS'HD1K/hd1k_flow_gt/flow_occ/000023_0044.png'
p715
aS'HD1K/hd1k_flow_gt/flow_occ/000023_0045.png'
p716
aS'HD1K/hd1k_flow_gt/flow_occ/000023_0046.png'
p717
aS'HD1K/hd1k_flow_gt/flow_occ/000023_0047.png'
p718
aS'HD1K/hd1k_flow_gt/flow_occ/000023_0048.png'
p719
aS'HD1K/hd1k_flow_gt/flow_occ/000023_0049.png'
p720
aS'HD1K/hd1k_flow_gt/flow_occ/000023_0050.png'
p721
aa(lp722
S'HD1K/hd1k_flow_gt/flow_occ/000024_0010.png'
p723
aS'HD1K/hd1k_flow_gt/flow_occ/000024_0011.png'
p724
aS'HD1K/hd1k_flow_gt/flow_occ/000024_0012.png'
p725
aS'HD1K/hd1k_flow_gt/flow_occ/000024_0013.png'
p726
aS'HD1K/hd1k_flow_gt/flow_occ/000024_0014.png'
p727
aS'HD1K/hd1k_flow_gt/flow_occ/000024_0015.png'
p728
aS'HD1K/hd1k_flow_gt/flow_occ/000024_0016.png'
p729
aS'HD1K/hd1k_flow_gt/flow_occ/000024_0017.png'
p730
aS'HD1K/hd1k_flow_gt/flow_occ/000024_0018.png'
p731
aS'HD1K/hd1k_flow_gt/flow_occ/000024_0019.png'
p732
aS'HD1K/hd1k_flow_gt/flow_occ/000024_0020.png'
p733
aa(lp734
S'HD1K/hd1k_flow_gt/flow_occ/000025_0010.png'
p735
aS'HD1K/hd1k_flow_gt/flow_occ/000025_0011.png'
p736
aS'HD1K/hd1k_flow_gt/flow_occ/000025_0012.png'
p737
aS'HD1K/hd1k_flow_gt/flow_occ/000025_0013.png'
p738
aS'HD1K/hd1k_flow_gt/flow_occ/000025_0014.png'
p739
aS'HD1K/hd1k_flow_gt/flow_occ/000025_0015.png'
p740
aS'HD1K/hd1k_flow_gt/flow_occ/000025_0016.png'
p741
aS'HD1K/hd1k_flow_gt/flow_occ/000025_0017.png'
p742
aS'HD1K/hd1k_flow_gt/flow_occ/000025_0018.png'
p743
aS'HD1K/hd1k_flow_gt/flow_occ/000025_0019.png'
p744
aS'HD1K/hd1k_flow_gt/flow_occ/000025_0020.png'
p745
aS'HD1K/hd1k_flow_gt/flow_occ/000025_0021.png'
p746
aS'HD1K/hd1k_flow_gt/flow_occ/000025_0022.png'
p747
aS'HD1K/hd1k_flow_gt/flow_occ/000025_0023.png'
p748
aS'HD1K/hd1k_flow_gt/flow_occ/000025_0024.png'
p749
aS'HD1K/hd1k_flow_gt/flow_occ/000025_0025.png'
p750
aS'HD1K/hd1k_flow_gt/flow_occ/000025_0026.png'
p751
aS'HD1K/hd1k_flow_gt/flow_occ/000025_0027.png'
p752
aS'HD1K/hd1k_flow_gt/flow_occ/000025_0028.png'
p753
aS'HD1K/hd1k_flow_gt/flow_occ/000025_0029.png'
p754
aS'HD1K/hd1k_flow_gt/flow_occ/000025_0030.png'
p755
aS'HD1K/hd1k_flow_gt/flow_occ/000025_0031.png'
p756
aS'HD1K/hd1k_flow_gt/flow_occ/000025_0032.png'
p757
aS'HD1K/hd1k_flow_gt/flow_occ/000025_0033.png'
p758
aS'HD1K/hd1k_flow_gt/flow_occ/000025_0034.png'
p759
aS'HD1K/hd1k_flow_gt/flow_occ/000025_0035.png'
p760
aS'HD1K/hd1k_flow_gt/flow_occ/000025_0036.png'
p761
aS'HD1K/hd1k_flow_gt/flow_occ/000025_0037.png'
p762
aa(lp763
S'HD1K/hd1k_flow_gt/flow_occ/000026_0010.png'
p764
aS'HD1K/hd1k_flow_gt/flow_occ/000026_0011.png'
p765
aS'HD1K/hd1k_flow_gt/flow_occ/000026_0012.png'
p766
aS'HD1K/hd1k_flow_gt/flow_occ/000026_0013.png'
p767
aS'HD1K/hd1k_flow_gt/flow_occ/000026_0014.png'
p768
aS'HD1K/hd1k_flow_gt/flow_occ/000026_0015.png'
p769
aS'HD1K/hd1k_flow_gt/flow_occ/000026_0016.png'
p770
aS'HD1K/hd1k_flow_gt/flow_occ/000026_0017.png'
p771
aS'HD1K/hd1k_flow_gt/flow_occ/000026_0018.png'
p772
aS'HD1K/hd1k_flow_gt/flow_occ/000026_0019.png'
p773
aS'HD1K/hd1k_flow_gt/flow_occ/000026_0020.png'
p774
aS'HD1K/hd1k_flow_gt/flow_occ/000026_0021.png'
p775
aS'HD1K/hd1k_flow_gt/flow_occ/000026_0022.png'
p776
aS'HD1K/hd1k_flow_gt/flow_occ/000026_0023.png'
p777
aS'HD1K/hd1k_flow_gt/flow_occ/000026_0024.png'
p778
aS'HD1K/hd1k_flow_gt/flow_occ/000026_0025.png'
p779
aS'HD1K/hd1k_flow_gt/flow_occ/000026_0026.png'
p780
aS'HD1K/hd1k_flow_gt/flow_occ/000026_0027.png'
p781
aS'HD1K/hd1k_flow_gt/flow_occ/000026_0028.png'
p782
aS'HD1K/hd1k_flow_gt/flow_occ/000026_0029.png'
p783
aS'HD1K/hd1k_flow_gt/flow_occ/000026_0030.png'
p784
aS'HD1K/hd1k_flow_gt/flow_occ/000026_0031.png'
p785
aS'HD1K/hd1k_flow_gt/flow_occ/000026_0032.png'
p786
aS'HD1K/hd1k_flow_gt/flow_occ/000026_0033.png'
p787
aS'HD1K/hd1k_flow_gt/flow_occ/000026_0034.png'
p788
aS'HD1K/hd1k_flow_gt/flow_occ/000026_0035.png'
p789
aS'HD1K/hd1k_flow_gt/flow_occ/000026_0036.png'
p790
aS'HD1K/hd1k_flow_gt/flow_occ/000026_0037.png'
p791
aS'HD1K/hd1k_flow_gt/flow_occ/000026_0038.png'
p792
aS'HD1K/hd1k_flow_gt/flow_occ/000026_0039.png'
p793
aS'HD1K/hd1k_flow_gt/flow_occ/000026_0040.png'
p794
aS'HD1K/hd1k_flow_gt/flow_occ/000026_0041.png'
p795
aS'HD1K/hd1k_flow_gt/flow_occ/000026_0042.png'
p796
aS'HD1K/hd1k_flow_gt/flow_occ/000026_0043.png'
p797
aS'HD1K/hd1k_flow_gt/flow_occ/000026_0044.png'
p798
aS'HD1K/hd1k_flow_gt/flow_occ/000026_0045.png'
p799
aS'HD1K/hd1k_flow_gt/flow_occ/000026_0046.png'
p800
aS'HD1K/hd1k_flow_gt/flow_occ/000026_0047.png'
p801
aS'HD1K/hd1k_flow_gt/flow_occ/000026_0048.png'
p802
aS'HD1K/hd1k_flow_gt/flow_occ/000026_0049.png'
p803
aS'HD1K/hd1k_flow_gt/flow_occ/000026_0050.png'
p804
aS'HD1K/hd1k_flow_gt/flow_occ/000026_0051.png'
p805
aS'HD1K/hd1k_flow_gt/flow_occ/000026_0052.png'
p806
aS'HD1K/hd1k_flow_gt/flow_occ/000026_0053.png'
p807
aS'HD1K/hd1k_flow_gt/flow_occ/000026_0054.png'
p808
aS'HD1K/hd1k_flow_gt/flow_occ/000026_0055.png'
p809
aS'HD1K/hd1k_flow_gt/flow_occ/000026_0056.png'
p810
aS'HD1K/hd1k_flow_gt/flow_occ/000026_0057.png'
p811
aS'HD1K/hd1k_flow_gt/flow_occ/000026_0058.png'
p812
aS'HD1K/hd1k_flow_gt/flow_occ/000026_0059.png'
p813
aS'HD1K/hd1k_flow_gt/flow_occ/000026_0060.png'
p814
aS'HD1K/hd1k_flow_gt/flow_occ/000026_0061.png'
p815
aS'HD1K/hd1k_flow_gt/flow_occ/000026_0062.png'
p816
aS'HD1K/hd1k_flow_gt/flow_occ/000026_0063.png'
p817
aS'HD1K/hd1k_flow_gt/flow_occ/000026_0064.png'
p818
aa(lp819
S'HD1K/hd1k_flow_gt/flow_occ/000027_0010.png'
p820
aS'HD1K/hd1k_flow_gt/flow_occ/000027_0011.png'
p821
aS'HD1K/hd1k_flow_gt/flow_occ/000027_0012.png'
p822
aS'HD1K/hd1k_flow_gt/flow_occ/000027_0013.png'
p823
aS'HD1K/hd1k_flow_gt/flow_occ/000027_0014.png'
p824
aS'HD1K/hd1k_flow_gt/flow_occ/000027_0015.png'
p825
aS'HD1K/hd1k_flow_gt/flow_occ/000027_0016.png'
p826
aS'HD1K/hd1k_flow_gt/flow_occ/000027_0017.png'
p827
aS'HD1K/hd1k_flow_gt/flow_occ/000027_0018.png'
p828
aS'HD1K/hd1k_flow_gt/flow_occ/000027_0019.png'
p829
aS'HD1K/hd1k_flow_gt/flow_occ/000027_0020.png'
p830
aS'HD1K/hd1k_flow_gt/flow_occ/000027_0021.png'
p831
aS'HD1K/hd1k_flow_gt/flow_occ/000027_0022.png'
p832
aS'HD1K/hd1k_flow_gt/flow_occ/000027_0023.png'
p833
aS'HD1K/hd1k_flow_gt/flow_occ/000027_0024.png'
p834
aS'HD1K/hd1k_flow_gt/flow_occ/000027_0025.png'
p835
aa(lp836
S'HD1K/hd1k_flow_gt/flow_occ/000028_0010.png'
p837
aS'HD1K/hd1k_flow_gt/flow_occ/000028_0011.png'
p838
aS'HD1K/hd1k_flow_gt/flow_occ/000028_0012.png'
p839
aS'HD1K/hd1k_flow_gt/flow_occ/000028_0013.png'
p840
aS'HD1K/hd1k_flow_gt/flow_occ/000028_0014.png'
p841
aS'HD1K/hd1k_flow_gt/flow_occ/000028_0015.png'
p842
aS'HD1K/hd1k_flow_gt/flow_occ/000028_0016.png'
p843
aS'HD1K/hd1k_flow_gt/flow_occ/000028_0017.png'
p844
aS'HD1K/hd1k_flow_gt/flow_occ/000028_0018.png'
p845
aS'HD1K/hd1k_flow_gt/flow_occ/000028_0019.png'
p846
aS'HD1K/hd1k_flow_gt/flow_occ/000028_0020.png'
p847
aS'HD1K/hd1k_flow_gt/flow_occ/000028_0021.png'
p848
aS'HD1K/hd1k_flow_gt/flow_occ/000028_0022.png'
p849
aS'HD1K/hd1k_flow_gt/flow_occ/000028_0023.png'
p850
aS'HD1K/hd1k_flow_gt/flow_occ/000028_0024.png'
p851
aS'HD1K/hd1k_flow_gt/flow_occ/000028_0025.png'
p852
aS'HD1K/hd1k_flow_gt/flow_occ/000028_0026.png'
p853
aS'HD1K/hd1k_flow_gt/flow_occ/000028_0027.png'
p854
aS'HD1K/hd1k_flow_gt/flow_occ/000028_0028.png'
p855
aS'HD1K/hd1k_flow_gt/flow_occ/000028_0029.png'
p856
aS'HD1K/hd1k_flow_gt/flow_occ/000028_0030.png'
p857
aS'HD1K/hd1k_flow_gt/flow_occ/000028_0031.png'
p858
aS'HD1K/hd1k_flow_gt/flow_occ/000028_0032.png'
p859
aS'HD1K/hd1k_flow_gt/flow_occ/000028_0033.png'
p860
aS'HD1K/hd1k_flow_gt/flow_occ/000028_0034.png'
p861
aS'HD1K/hd1k_flow_gt/flow_occ/000028_0035.png'
p862
aS'HD1K/hd1k_flow_gt/flow_occ/000028_0036.png'
p863
aS'HD1K/hd1k_flow_gt/flow_occ/000028_0037.png'
p864
aS'HD1K/hd1k_flow_gt/flow_occ/000028_0038.png'
p865
aS'HD1K/hd1k_flow_gt/flow_occ/000028_0039.png'
p866
aS'HD1K/hd1k_flow_gt/flow_occ/000028_0040.png'
p867
aS'HD1K/hd1k_flow_gt/flow_occ/000028_0041.png'
p868
aS'HD1K/hd1k_flow_gt/flow_occ/000028_0042.png'
p869
aS'HD1K/hd1k_flow_gt/flow_occ/000028_0043.png'
p870
aS'HD1K/hd1k_flow_gt/flow_occ/000028_0044.png'
p871
aS'HD1K/hd1k_flow_gt/flow_occ/000028_0045.png'
p872
aS'HD1K/hd1k_flow_gt/flow_occ/000028_0046.png'
p873
aS'HD1K/hd1k_flow_gt/flow_occ/000028_0047.png'
p874
aS'HD1K/hd1k_flow_gt/flow_occ/000028_0048.png'
p875
aS'HD1K/hd1k_flow_gt/flow_occ/000028_0049.png'
p876
aS'HD1K/hd1k_flow_gt/flow_occ/000028_0050.png'
p877
aS'HD1K/hd1k_flow_gt/flow_occ/000028_0051.png'
p878
aa(lp879
S'HD1K/hd1k_flow_gt/flow_occ/000029_0010.png'
p880
aS'HD1K/hd1k_flow_gt/flow_occ/000029_0011.png'
p881
aS'HD1K/hd1k_flow_gt/flow_occ/000029_0012.png'
p882
aS'HD1K/hd1k_flow_gt/flow_occ/000029_0013.png'
p883
aS'HD1K/hd1k_flow_gt/flow_occ/000029_0014.png'
p884
aS'HD1K/hd1k_flow_gt/flow_occ/000029_0015.png'
p885
aS'HD1K/hd1k_flow_gt/flow_occ/000029_0016.png'
p886
aS'HD1K/hd1k_flow_gt/flow_occ/000029_0017.png'
p887
aS'HD1K/hd1k_flow_gt/flow_occ/000029_0018.png'
p888
aS'HD1K/hd1k_flow_gt/flow_occ/000029_0019.png'
p889
aS'HD1K/hd1k_flow_gt/flow_occ/000029_0020.png'
p890
aS'HD1K/hd1k_flow_gt/flow_occ/000029_0021.png'
p891
aS'HD1K/hd1k_flow_gt/flow_occ/000029_0022.png'
p892
aS'HD1K/hd1k_flow_gt/flow_occ/000029_0023.png'
p893
aS'HD1K/hd1k_flow_gt/flow_occ/000029_0024.png'
p894
aS'HD1K/hd1k_flow_gt/flow_occ/000029_0025.png'
p895
aS'HD1K/hd1k_flow_gt/flow_occ/000029_0026.png'
p896
aS'HD1K/hd1k_flow_gt/flow_occ/000029_0027.png'
p897
aS'HD1K/hd1k_flow_gt/flow_occ/000029_0028.png'
p898
aS'HD1K/hd1k_flow_gt/flow_occ/000029_0029.png'
p899
aS'HD1K/hd1k_flow_gt/flow_occ/000029_0030.png'
p900
aS'HD1K/hd1k_flow_gt/flow_occ/000029_0031.png'
p901
aS'HD1K/hd1k_flow_gt/flow_occ/000029_0032.png'
p902
aS'HD1K/hd1k_flow_gt/flow_occ/000029_0033.png'
p903
aS'HD1K/hd1k_flow_gt/flow_occ/000029_0034.png'
p904
aS'HD1K/hd1k_flow_gt/flow_occ/000029_0035.png'
p905
aS'HD1K/hd1k_flow_gt/flow_occ/000029_0036.png'
p906
aS'HD1K/hd1k_flow_gt/flow_occ/000029_0037.png'
p907
aS'HD1K/hd1k_flow_gt/flow_occ/000029_0038.png'
p908
aS'HD1K/hd1k_flow_gt/flow_occ/000029_0039.png'
p909
aS'HD1K/hd1k_flow_gt/flow_occ/000029_0040.png'
p910
aS'HD1K/hd1k_flow_gt/flow_occ/000029_0041.png'
p911
aS'HD1K/hd1k_flow_gt/flow_occ/000029_0042.png'
p912
aS'HD1K/hd1k_flow_gt/flow_occ/000029_0043.png'
p913
aS'HD1K/hd1k_flow_gt/flow_occ/000029_0044.png'
p914
aS'HD1K/hd1k_flow_gt/flow_occ/000029_0045.png'
p915
aS'HD1K/hd1k_flow_gt/flow_occ/000029_0046.png'
p916
aS'HD1K/hd1k_flow_gt/flow_occ/000029_0047.png'
p917
aS'HD1K/hd1k_flow_gt/flow_occ/000029_0048.png'
p918
aS'HD1K/hd1k_flow_gt/flow_occ/000029_0049.png'
p919
aS'HD1K/hd1k_flow_gt/flow_occ/000029_0050.png'
p920
aS'HD1K/hd1k_flow_gt/flow_occ/000029_0051.png'
p921
aS'HD1K/hd1k_flow_gt/flow_occ/000029_0052.png'
p922
aS'HD1K/hd1k_flow_gt/flow_occ/000029_0053.png'
p923
aS'HD1K/hd1k_flow_gt/flow_occ/000029_0054.png'
p924
aS'HD1K/hd1k_flow_gt/flow_occ/000029_0055.png'
p925
aS'HD1K/hd1k_flow_gt/flow_occ/000029_0056.png'
p926
aS'HD1K/hd1k_flow_gt/flow_occ/000029_0057.png'
p927
aS'HD1K/hd1k_flow_gt/flow_occ/000029_0058.png'
p928
aS'HD1K/hd1k_flow_gt/flow_occ/000029_0059.png'
p929
aS'HD1K/hd1k_flow_gt/flow_occ/000029_0060.png'
p930
aS'HD1K/hd1k_flow_gt/flow_occ/000029_0061.png'
p931
aS'HD1K/hd1k_flow_gt/flow_occ/000029_0062.png'
p932
aS'HD1K/hd1k_flow_gt/flow_occ/000029_0063.png'
p933
aS'HD1K/hd1k_flow_gt/flow_occ/000029_0064.png'
p934
aS'HD1K/hd1k_flow_gt/flow_occ/000029_0065.png'
p935
aS'HD1K/hd1k_flow_gt/flow_occ/000029_0066.png'
p936
aS'HD1K/hd1k_flow_gt/flow_occ/000029_0067.png'
p937
aa(lp938
S'HD1K/hd1k_flow_gt/flow_occ/000030_0010.png'
p939
aS'HD1K/hd1k_flow_gt/flow_occ/000030_0011.png'
p940
aS'HD1K/hd1k_flow_gt/flow_occ/000030_0012.png'
p941
aS'HD1K/hd1k_flow_gt/flow_occ/000030_0013.png'
p942
aS'HD1K/hd1k_flow_gt/flow_occ/000030_0014.png'
p943
aS'HD1K/hd1k_flow_gt/flow_occ/000030_0015.png'
p944
aS'HD1K/hd1k_flow_gt/flow_occ/000030_0016.png'
p945
aS'HD1K/hd1k_flow_gt/flow_occ/000030_0017.png'
p946
aS'HD1K/hd1k_flow_gt/flow_occ/000030_0018.png'
p947
aS'HD1K/hd1k_flow_gt/flow_occ/000030_0019.png'
p948
aS'HD1K/hd1k_flow_gt/flow_occ/000030_0020.png'
p949
aS'HD1K/hd1k_flow_gt/flow_occ/000030_0021.png'
p950
aS'HD1K/hd1k_flow_gt/flow_occ/000030_0022.png'
p951
aS'HD1K/hd1k_flow_gt/flow_occ/000030_0023.png'
p952
aS'HD1K/hd1k_flow_gt/flow_occ/000030_0024.png'
p953
aS'HD1K/hd1k_flow_gt/flow_occ/000030_0025.png'
p954
aS'HD1K/hd1k_flow_gt/flow_occ/000030_0026.png'
p955
aS'HD1K/hd1k_flow_gt/flow_occ/000030_0027.png'
p956
aS'HD1K/hd1k_flow_gt/flow_occ/000030_0028.png'
p957
aS'HD1K/hd1k_flow_gt/flow_occ/000030_0029.png'
p958
aS'HD1K/hd1k_flow_gt/flow_occ/000030_0030.png'
p959
aS'HD1K/hd1k_flow_gt/flow_occ/000030_0031.png'
p960
aS'HD1K/hd1k_flow_gt/flow_occ/000030_0032.png'
p961
aS'HD1K/hd1k_flow_gt/flow_occ/000030_0033.png'
p962
aS'HD1K/hd1k_flow_gt/flow_occ/000030_0034.png'
p963
aS'HD1K/hd1k_flow_gt/flow_occ/000030_0035.png'
p964
aS'HD1K/hd1k_flow_gt/flow_occ/000030_0036.png'
p965
aS'HD1K/hd1k_flow_gt/flow_occ/000030_0037.png'
p966
aS'HD1K/hd1k_flow_gt/flow_occ/000030_0038.png'
p967
aS'HD1K/hd1k_flow_gt/flow_occ/000030_0039.png'
p968
aS'HD1K/hd1k_flow_gt/flow_occ/000030_0040.png'
p969
aS'HD1K/hd1k_flow_gt/flow_occ/000030_0041.png'
p970
aS'HD1K/hd1k_flow_gt/flow_occ/000030_0042.png'
p971
aS'HD1K/hd1k_flow_gt/flow_occ/000030_0043.png'
p972
aS'HD1K/hd1k_flow_gt/flow_occ/000030_0044.png'
p973
aS'HD1K/hd1k_flow_gt/flow_occ/000030_0045.png'
p974
aS'HD1K/hd1k_flow_gt/flow_occ/000030_0046.png'
p975
aS'HD1K/hd1k_flow_gt/flow_occ/000030_0047.png'
p976
aS'HD1K/hd1k_flow_gt/flow_occ/000030_0048.png'
p977
aS'HD1K/hd1k_flow_gt/flow_occ/000030_0049.png'
p978
aS'HD1K/hd1k_flow_gt/flow_occ/000030_0050.png'
p979
aS'HD1K/hd1k_flow_gt/flow_occ/000030_0051.png'
p980
aS'HD1K/hd1k_flow_gt/flow_occ/000030_0052.png'
p981
aS'HD1K/hd1k_flow_gt/flow_occ/000030_0053.png'
p982
aS'HD1K/hd1k_flow_gt/flow_occ/000030_0054.png'
p983
aS'HD1K/hd1k_flow_gt/flow_occ/000030_0055.png'
p984
aS'HD1K/hd1k_flow_gt/flow_occ/000030_0056.png'
p985
aS'HD1K/hd1k_flow_gt/flow_occ/000030_0057.png'
p986
aS'HD1K/hd1k_flow_gt/flow_occ/000030_0058.png'
p987
aS'HD1K/hd1k_flow_gt/flow_occ/000030_0059.png'
p988
aS'HD1K/hd1k_flow_gt/flow_occ/000030_0060.png'
p989
aS'HD1K/hd1k_flow_gt/flow_occ/000030_0061.png'
p990
aS'HD1K/hd1k_flow_gt/flow_occ/000030_0062.png'
p991
aS'HD1K/hd1k_flow_gt/flow_occ/000030_0063.png'
p992
aS'HD1K/hd1k_flow_gt/flow_occ/000030_0064.png'
p993
aS'HD1K/hd1k_flow_gt/flow_occ/000030_0065.png'
p994
aS'HD1K/hd1k_flow_gt/flow_occ/000030_0066.png'
p995
aS'HD1K/hd1k_flow_gt/flow_occ/000030_0067.png'
p996
aS'HD1K/hd1k_flow_gt/flow_occ/000030_0068.png'
p997
aS'HD1K/hd1k_flow_gt/flow_occ/000030_0069.png'
p998
aS'HD1K/hd1k_flow_gt/flow_occ/000030_0070.png'
p999
aS'HD1K/hd1k_flow_gt/flow_occ/000030_0071.png'
p1000
aS'HD1K/hd1k_flow_gt/flow_occ/000030_0072.png'
p1001
aS'HD1K/hd1k_flow_gt/flow_occ/000030_0073.png'
p1002
aS'HD1K/hd1k_flow_gt/flow_occ/000030_0074.png'
p1003
aS'HD1K/hd1k_flow_gt/flow_occ/000030_0075.png'
p1004
aS'HD1K/hd1k_flow_gt/flow_occ/000030_0076.png'
p1005
aS'HD1K/hd1k_flow_gt/flow_occ/000030_0077.png'
p1006
aS'HD1K/hd1k_flow_gt/flow_occ/000030_0078.png'
p1007
aS'HD1K/hd1k_flow_gt/flow_occ/000030_0079.png'
p1008
aS'HD1K/hd1k_flow_gt/flow_occ/000030_0080.png'
p1009
aa(lp1010
S'HD1K/hd1k_flow_gt/flow_occ/000031_0010.png'
p1011
aS'HD1K/hd1k_flow_gt/flow_occ/000031_0011.png'
p1012
aS'HD1K/hd1k_flow_gt/flow_occ/000031_0012.png'
p1013
aS'HD1K/hd1k_flow_gt/flow_occ/000031_0013.png'
p1014
aS'HD1K/hd1k_flow_gt/flow_occ/000031_0014.png'
p1015
aS'HD1K/hd1k_flow_gt/flow_occ/000031_0015.png'
p1016
aS'HD1K/hd1k_flow_gt/flow_occ/000031_0016.png'
p1017
aS'HD1K/hd1k_flow_gt/flow_occ/000031_0017.png'
p1018
aS'HD1K/hd1k_flow_gt/flow_occ/000031_0018.png'
p1019
aS'HD1K/hd1k_flow_gt/flow_occ/000031_0019.png'
p1020
aS'HD1K/hd1k_flow_gt/flow_occ/000031_0020.png'
p1021
aS'HD1K/hd1k_flow_gt/flow_occ/000031_0021.png'
p1022
aS'HD1K/hd1k_flow_gt/flow_occ/000031_0022.png'
p1023
aS'HD1K/hd1k_flow_gt/flow_occ/000031_0023.png'
p1024
aa(lp1025
S'HD1K/hd1k_flow_gt/flow_occ/000032_0010.png'
p1026
aS'HD1K/hd1k_flow_gt/flow_occ/000032_0011.png'
p1027
aS'HD1K/hd1k_flow_gt/flow_occ/000032_0012.png'
p1028
aS'HD1K/hd1k_flow_gt/flow_occ/000032_0013.png'
p1029
aS'HD1K/hd1k_flow_gt/flow_occ/000032_0014.png'
p1030
aS'HD1K/hd1k_flow_gt/flow_occ/000032_0015.png'
p1031
aS'HD1K/hd1k_flow_gt/flow_occ/000032_0016.png'
p1032
aS'HD1K/hd1k_flow_gt/flow_occ/000032_0017.png'
p1033
aS'HD1K/hd1k_flow_gt/flow_occ/000032_0018.png'
p1034
aS'HD1K/hd1k_flow_gt/flow_occ/000032_0019.png'
p1035
aS'HD1K/hd1k_flow_gt/flow_occ/000032_0020.png'
p1036
aS'HD1K/hd1k_flow_gt/flow_occ/000032_0021.png'
p1037
aS'HD1K/hd1k_flow_gt/flow_occ/000032_0022.png'
p1038
aS'HD1K/hd1k_flow_gt/flow_occ/000032_0023.png'
p1039
aS'HD1K/hd1k_flow_gt/flow_occ/000032_0024.png'
p1040
aa(lp1041
S'HD1K/hd1k_flow_gt/flow_occ/000033_0010.png'
p1042
aS'HD1K/hd1k_flow_gt/flow_occ/000033_0011.png'
p1043
aS'HD1K/hd1k_flow_gt/flow_occ/000033_0012.png'
p1044
aS'HD1K/hd1k_flow_gt/flow_occ/000033_0013.png'
p1045
aS'HD1K/hd1k_flow_gt/flow_occ/000033_0014.png'
p1046
aS'HD1K/hd1k_flow_gt/flow_occ/000033_0015.png'
p1047
aS'HD1K/hd1k_flow_gt/flow_occ/000033_0016.png'
p1048
aS'HD1K/hd1k_flow_gt/flow_occ/000033_0017.png'
p1049
aS'HD1K/hd1k_flow_gt/flow_occ/000033_0018.png'
p1050
aS'HD1K/hd1k_flow_gt/flow_occ/000033_0019.png'
p1051
aS'HD1K/hd1k_flow_gt/flow_occ/000033_0020.png'
p1052
aS'HD1K/hd1k_flow_gt/flow_occ/000033_0021.png'
p1053
aS'HD1K/hd1k_flow_gt/flow_occ/000033_0022.png'
p1054
aS'HD1K/hd1k_flow_gt/flow_occ/000033_0023.png'
p1055
aS'HD1K/hd1k_flow_gt/flow_occ/000033_0024.png'
p1056
aS'HD1K/hd1k_flow_gt/flow_occ/000033_0025.png'
p1057
aS'HD1K/hd1k_flow_gt/flow_occ/000033_0026.png'
p1058
aS'HD1K/hd1k_flow_gt/flow_occ/000033_0027.png'
p1059
aa(lp1060
S'HD1K/hd1k_flow_gt/flow_occ/000034_0010.png'
p1061
aS'HD1K/hd1k_flow_gt/flow_occ/000034_0011.png'
p1062
aS'HD1K/hd1k_flow_gt/flow_occ/000034_0012.png'
p1063
aS'HD1K/hd1k_flow_gt/flow_occ/000034_0013.png'
p1064
aS'HD1K/hd1k_flow_gt/flow_occ/000034_0014.png'
p1065
aS'HD1K/hd1k_flow_gt/flow_occ/000034_0015.png'
p1066
aS'HD1K/hd1k_flow_gt/flow_occ/000034_0016.png'
p1067
aS'HD1K/hd1k_flow_gt/flow_occ/000034_0017.png'
p1068
aS'HD1K/hd1k_flow_gt/flow_occ/000034_0018.png'
p1069
aS'HD1K/hd1k_flow_gt/flow_occ/000034_0019.png'
p1070
aS'HD1K/hd1k_flow_gt/flow_occ/000034_0020.png'
p1071
aS'HD1K/hd1k_flow_gt/flow_occ/000034_0021.png'
p1072
aS'HD1K/hd1k_flow_gt/flow_occ/000034_0022.png'
p1073
aS'HD1K/hd1k_flow_gt/flow_occ/000034_0023.png'
p1074
aS'HD1K/hd1k_flow_gt/flow_occ/000034_0024.png'
p1075
aS'HD1K/hd1k_flow_gt/flow_occ/000034_0025.png'
p1076
aa(lp1077
S'HD1K/hd1k_flow_gt/flow_occ/000035_0010.png'
p1078
aS'HD1K/hd1k_flow_gt/flow_occ/000035_0011.png'
p1079
aS'HD1K/hd1k_flow_gt/flow_occ/000035_0012.png'
p1080
aS'HD1K/hd1k_flow_gt/flow_occ/000035_0013.png'
p1081
aS'HD1K/hd1k_flow_gt/flow_occ/000035_0014.png'
p1082
aS'HD1K/hd1k_flow_gt/flow_occ/000035_0015.png'
p1083
aS'HD1K/hd1k_flow_gt/flow_occ/000035_0016.png'
p1084
aS'HD1K/hd1k_flow_gt/flow_occ/000035_0017.png'
p1085
aS'HD1K/hd1k_flow_gt/flow_occ/000035_0018.png'
p1086
aS'HD1K/hd1k_flow_gt/flow_occ/000035_0019.png'
p1087
aS'HD1K/hd1k_flow_gt/flow_occ/000035_0020.png'
p1088
aS'HD1K/hd1k_flow_gt/flow_occ/000035_0021.png'
p1089
aS'HD1K/hd1k_flow_gt/flow_occ/000035_0022.png'
p1090
aS'HD1K/hd1k_flow_gt/flow_occ/000035_0023.png'
p1091
aS'HD1K/hd1k_flow_gt/flow_occ/000035_0024.png'
p1092
aS'HD1K/hd1k_flow_gt/flow_occ/000035_0025.png'
p1093
aS'HD1K/hd1k_flow_gt/flow_occ/000035_0026.png'
p1094
aS'HD1K/hd1k_flow_gt/flow_occ/000035_0027.png'
p1095
aS'HD1K/hd1k_flow_gt/flow_occ/000035_0028.png'
p1096
aS'HD1K/hd1k_flow_gt/flow_occ/000035_0029.png'
p1097
aS'HD1K/hd1k_flow_gt/flow_occ/000035_0030.png'
p1098
aS'HD1K/hd1k_flow_gt/flow_occ/000035_0031.png'
p1099
aS'HD1K/hd1k_flow_gt/flow_occ/000035_0032.png'
p1100
aS'HD1K/hd1k_flow_gt/flow_occ/000035_0033.png'
p1101
aS'HD1K/hd1k_flow_gt/flow_occ/000035_0034.png'
p1102
aS'HD1K/hd1k_flow_gt/flow_occ/000035_0035.png'
p1103
aS'HD1K/hd1k_flow_gt/flow_occ/000035_0036.png'
p1104
aS'HD1K/hd1k_flow_gt/flow_occ/000035_0037.png'
p1105
aS'HD1K/hd1k_flow_gt/flow_occ/000035_0038.png'
p1106
aS'HD1K/hd1k_flow_gt/flow_occ/000035_0039.png'
p1107
aS'HD1K/hd1k_flow_gt/flow_occ/000035_0040.png'
p1108
aS'HD1K/hd1k_flow_gt/flow_occ/000035_0041.png'
p1109
aS'HD1K/hd1k_flow_gt/flow_occ/000035_0042.png'
p1110
aS'HD1K/hd1k_flow_gt/flow_occ/000035_0043.png'
p1111
aS'HD1K/hd1k_flow_gt/flow_occ/000035_0044.png'
p1112
aS'HD1K/hd1k_flow_gt/flow_occ/000035_0045.png'
p1113
aS'HD1K/hd1k_flow_gt/flow_occ/000035_0046.png'
p1114
aS'HD1K/hd1k_flow_gt/flow_occ/000035_0047.png'
p1115
aS'HD1K/hd1k_flow_gt/flow_occ/000035_0048.png'
p1116
aS'HD1K/hd1k_flow_gt/flow_occ/000035_0049.png'
p1117
aS'HD1K/hd1k_flow_gt/flow_occ/000035_0050.png'
p1118
aS'HD1K/hd1k_flow_gt/flow_occ/000035_0051.png'
p1119
aa.