(lp0
(lp1
S'Sintel/training/flow/ambush_6/frame_0001.flo\n'
p2
aS'Sintel/training/flow/ambush_6/frame_0002.flo\n'
p3
aS'Sintel/training/flow/ambush_6/frame_0003.flo\n'
p4
aS'Sintel/training/flow/ambush_6/frame_0004.flo\n'
p5
aS'Sintel/training/flow/ambush_6/frame_0005.flo\n'
p6
aS'Sintel/training/flow/ambush_6/frame_0006.flo\n'
p7
aS'Sintel/training/flow/ambush_6/frame_0007.flo\n'
p8
aS'Sintel/training/flow/ambush_6/frame_0008.flo\n'
p9
aS'Sintel/training/flow/ambush_6/frame_0009.flo\n'
p10
aS'Sintel/training/flow/ambush_6/frame_0010.flo\n'
p11
aS'Sintel/training/flow/ambush_6/frame_0011.flo\n'
p12
aS'Sintel/training/flow/ambush_6/frame_0012.flo\n'
p13
aS'Sintel/training/flow/ambush_6/frame_0013.flo\n'
p14
aS'Sintel/training/flow/ambush_6/frame_0014.flo\n'
p15
aS'Sintel/training/flow/ambush_6/frame_0015.flo\n'
p16
aS'Sintel/training/flow/ambush_6/frame_0016.flo\n'
p17
aS'Sintel/training/flow/ambush_6/frame_0017.flo\n'
p18
aS'Sintel/training/flow/ambush_6/frame_0018.flo\n'
p19
aS'Sintel/training/flow/ambush_6/frame_0019.flo\n'
p20
aa(lp21
S'Sintel/training/flow/bandage_1/frame_0001.flo\n'
p22
aS'Sintel/training/flow/bandage_1/frame_0002.flo\n'
p23
aS'Sintel/training/flow/bandage_1/frame_0003.flo\n'
p24
aS'Sintel/training/flow/bandage_1/frame_0004.flo\n'
p25
aS'Sintel/training/flow/bandage_1/frame_0005.flo\n'
p26
aS'Sintel/training/flow/bandage_1/frame_0006.flo\n'
p27
aS'Sintel/training/flow/bandage_1/frame_0007.flo\n'
p28
aS'Sintel/training/flow/bandage_1/frame_0008.flo\n'
p29
aS'Sintel/training/flow/bandage_1/frame_0009.flo\n'
p30
aS'Sintel/training/flow/bandage_1/frame_0010.flo\n'
p31
aS'Sintel/training/flow/bandage_1/frame_0011.flo\n'
p32
aS'Sintel/training/flow/bandage_1/frame_0012.flo\n'
p33
aS'Sintel/training/flow/bandage_1/frame_0013.flo\n'
p34
aS'Sintel/training/flow/bandage_1/frame_0014.flo\n'
p35
aS'Sintel/training/flow/bandage_1/frame_0015.flo\n'
p36
aS'Sintel/training/flow/bandage_1/frame_0016.flo\n'
p37
aS'Sintel/training/flow/bandage_1/frame_0017.flo\n'
p38
aS'Sintel/training/flow/bandage_1/frame_0018.flo\n'
p39
aS'Sintel/training/flow/bandage_1/frame_0019.flo\n'
p40
aS'Sintel/training/flow/bandage_1/frame_0020.flo\n'
p41
aS'Sintel/training/flow/bandage_1/frame_0021.flo\n'
p42
aS'Sintel/training/flow/bandage_1/frame_0022.flo\n'
p43
aS'Sintel/training/flow/bandage_1/frame_0023.flo\n'
p44
aS'Sintel/training/flow/bandage_1/frame_0024.flo\n'
p45
aS'Sintel/training/flow/bandage_1/frame_0025.flo\n'
p46
aS'Sintel/training/flow/bandage_1/frame_0026.flo\n'
p47
aS'Sintel/training/flow/bandage_1/frame_0027.flo\n'
p48
aS'Sintel/training/flow/bandage_1/frame_0028.flo\n'
p49
aS'Sintel/training/flow/bandage_1/frame_0029.flo\n'
p50
aS'Sintel/training/flow/bandage_1/frame_0030.flo\n'
p51
aS'Sintel/training/flow/bandage_1/frame_0031.flo\n'
p52
aS'Sintel/training/flow/bandage_1/frame_0032.flo\n'
p53
aS'Sintel/training/flow/bandage_1/frame_0033.flo\n'
p54
aS'Sintel/training/flow/bandage_1/frame_0034.flo\n'
p55
aS'Sintel/training/flow/bandage_1/frame_0035.flo\n'
p56
aS'Sintel/training/flow/bandage_1/frame_0036.flo\n'
p57
aS'Sintel/training/flow/bandage_1/frame_0037.flo\n'
p58
aS'Sintel/training/flow/bandage_1/frame_0038.flo\n'
p59
aS'Sintel/training/flow/bandage_1/frame_0039.flo\n'
p60
aS'Sintel/training/flow/bandage_1/frame_0040.flo\n'
p61
aS'Sintel/training/flow/bandage_1/frame_0041.flo\n'
p62
aS'Sintel/training/flow/bandage_1/frame_0042.flo\n'
p63
aS'Sintel/training/flow/bandage_1/frame_0043.flo\n'
p64
aS'Sintel/training/flow/bandage_1/frame_0044.flo\n'
p65
aS'Sintel/training/flow/bandage_1/frame_0045.flo\n'
p66
aS'Sintel/training/flow/bandage_1/frame_0046.flo\n'
p67
aS'Sintel/training/flow/bandage_1/frame_0047.flo\n'
p68
aS'Sintel/training/flow/bandage_1/frame_0048.flo\n'
p69
aS'Sintel/training/flow/bandage_1/frame_0049.flo\n'
p70
aa(lp71
S'Sintel/training/flow/market_2/frame_0001.flo\n'
p72
aS'Sintel/training/flow/market_2/frame_0002.flo\n'
p73
aS'Sintel/training/flow/market_2/frame_0003.flo\n'
p74
aS'Sintel/training/flow/market_2/frame_0004.flo\n'
p75
aS'Sintel/training/flow/market_2/frame_0005.flo\n'
p76
aS'Sintel/training/flow/market_2/frame_0006.flo\n'
p77
aS'Sintel/training/flow/market_2/frame_0007.flo\n'
p78
aS'Sintel/training/flow/market_2/frame_0008.flo\n'
p79
aS'Sintel/training/flow/market_2/frame_0009.flo\n'
p80
aS'Sintel/training/flow/market_2/frame_0010.flo\n'
p81
aS'Sintel/training/flow/market_2/frame_0011.flo\n'
p82
aS'Sintel/training/flow/market_2/frame_0012.flo\n'
p83
aS'Sintel/training/flow/market_2/frame_0013.flo\n'
p84
aS'Sintel/training/flow/market_2/frame_0014.flo\n'
p85
aS'Sintel/training/flow/market_2/frame_0015.flo\n'
p86
aS'Sintel/training/flow/market_2/frame_0016.flo\n'
p87
aS'Sintel/training/flow/market_2/frame_0017.flo\n'
p88
aS'Sintel/training/flow/market_2/frame_0018.flo\n'
p89
aS'Sintel/training/flow/market_2/frame_0019.flo\n'
p90
aS'Sintel/training/flow/market_2/frame_0020.flo\n'
p91
aS'Sintel/training/flow/market_2/frame_0021.flo\n'
p92
aS'Sintel/training/flow/market_2/frame_0022.flo\n'
p93
aS'Sintel/training/flow/market_2/frame_0023.flo\n'
p94
aS'Sintel/training/flow/market_2/frame_0024.flo\n'
p95
aS'Sintel/training/flow/market_2/frame_0025.flo\n'
p96
aS'Sintel/training/flow/market_2/frame_0026.flo\n'
p97
aS'Sintel/training/flow/market_2/frame_0027.flo\n'
p98
aS'Sintel/training/flow/market_2/frame_0028.flo\n'
p99
aS'Sintel/training/flow/market_2/frame_0029.flo\n'
p100
aS'Sintel/training/flow/market_2/frame_0030.flo\n'
p101
aS'Sintel/training/flow/market_2/frame_0031.flo\n'
p102
aS'Sintel/training/flow/market_2/frame_0032.flo\n'
p103
aS'Sintel/training/flow/market_2/frame_0033.flo\n'
p104
aS'Sintel/training/flow/market_2/frame_0034.flo\n'
p105
aS'Sintel/training/flow/market_2/frame_0035.flo\n'
p106
aS'Sintel/training/flow/market_2/frame_0036.flo\n'
p107
aS'Sintel/training/flow/market_2/frame_0037.flo\n'
p108
aS'Sintel/training/flow/market_2/frame_0038.flo\n'
p109
aS'Sintel/training/flow/market_2/frame_0039.flo\n'
p110
aS'Sintel/training/flow/market_2/frame_0040.flo\n'
p111
aS'Sintel/training/flow/market_2/frame_0041.flo\n'
p112
aS'Sintel/training/flow/market_2/frame_0042.flo\n'
p113
aS'Sintel/training/flow/market_2/frame_0043.flo\n'
p114
aS'Sintel/training/flow/market_2/frame_0044.flo\n'
p115
aS'Sintel/training/flow/market_2/frame_0045.flo\n'
p116
aS'Sintel/training/flow/market_2/frame_0046.flo\n'
p117
aS'Sintel/training/flow/market_2/frame_0047.flo\n'
p118
aS'Sintel/training/flow/market_2/frame_0048.flo\n'
p119
aS'Sintel/training/flow/market_2/frame_0049.flo\n'
p120
aa(lp121
S'Sintel/training/flow/cave_2/frame_0001.flo\n'
p122
aS'Sintel/training/flow/cave_2/frame_0002.flo\n'
p123
aS'Sintel/training/flow/cave_2/frame_0003.flo\n'
p124
aS'Sintel/training/flow/cave_2/frame_0004.flo\n'
p125
aS'Sintel/training/flow/cave_2/frame_0005.flo\n'
p126
aS'Sintel/training/flow/cave_2/frame_0006.flo\n'
p127
aS'Sintel/training/flow/cave_2/frame_0007.flo\n'
p128
aS'Sintel/training/flow/cave_2/frame_0008.flo\n'
p129
aS'Sintel/training/flow/cave_2/frame_0009.flo\n'
p130
aS'Sintel/training/flow/cave_2/frame_0010.flo\n'
p131
aS'Sintel/training/flow/cave_2/frame_0011.flo\n'
p132
aS'Sintel/training/flow/cave_2/frame_0012.flo\n'
p133
aS'Sintel/training/flow/cave_2/frame_0013.flo\n'
p134
aS'Sintel/training/flow/cave_2/frame_0014.flo\n'
p135
aS'Sintel/training/flow/cave_2/frame_0015.flo\n'
p136
aS'Sintel/training/flow/cave_2/frame_0016.flo\n'
p137
aS'Sintel/training/flow/cave_2/frame_0017.flo\n'
p138
aS'Sintel/training/flow/cave_2/frame_0018.flo\n'
p139
aS'Sintel/training/flow/cave_2/frame_0019.flo\n'
p140
aS'Sintel/training/flow/cave_2/frame_0020.flo\n'
p141
aS'Sintel/training/flow/cave_2/frame_0021.flo\n'
p142
aS'Sintel/training/flow/cave_2/frame_0022.flo\n'
p143
aS'Sintel/training/flow/cave_2/frame_0023.flo\n'
p144
aS'Sintel/training/flow/cave_2/frame_0024.flo\n'
p145
aS'Sintel/training/flow/cave_2/frame_0025.flo\n'
p146
aS'Sintel/training/flow/cave_2/frame_0026.flo\n'
p147
aS'Sintel/training/flow/cave_2/frame_0027.flo\n'
p148
aS'Sintel/training/flow/cave_2/frame_0028.flo\n'
p149
aS'Sintel/training/flow/cave_2/frame_0029.flo\n'
p150
aS'Sintel/training/flow/cave_2/frame_0030.flo\n'
p151
aS'Sintel/training/flow/cave_2/frame_0031.flo\n'
p152
aS'Sintel/training/flow/cave_2/frame_0032.flo\n'
p153
aS'Sintel/training/flow/cave_2/frame_0033.flo\n'
p154
aS'Sintel/training/flow/cave_2/frame_0034.flo\n'
p155
aS'Sintel/training/flow/cave_2/frame_0035.flo\n'
p156
aS'Sintel/training/flow/cave_2/frame_0036.flo\n'
p157
aS'Sintel/training/flow/cave_2/frame_0037.flo\n'
p158
aS'Sintel/training/flow/cave_2/frame_0038.flo\n'
p159
aS'Sintel/training/flow/cave_2/frame_0039.flo\n'
p160
aS'Sintel/training/flow/cave_2/frame_0040.flo\n'
p161
aS'Sintel/training/flow/cave_2/frame_0041.flo\n'
p162
aS'Sintel/training/flow/cave_2/frame_0042.flo\n'
p163
aS'Sintel/training/flow/cave_2/frame_0043.flo\n'
p164
aS'Sintel/training/flow/cave_2/frame_0044.flo\n'
p165
aS'Sintel/training/flow/cave_2/frame_0045.flo\n'
p166
aS'Sintel/training/flow/cave_2/frame_0046.flo\n'
p167
aS'Sintel/training/flow/cave_2/frame_0047.flo\n'
p168
aS'Sintel/training/flow/cave_2/frame_0048.flo\n'
p169
aS'Sintel/training/flow/cave_2/frame_0049.flo\n'
p170
aa(lp171
S'Sintel/training/flow/temple_2/frame_0001.flo\n'
p172
aS'Sintel/training/flow/temple_2/frame_0002.flo\n'
p173
aS'Sintel/training/flow/temple_2/frame_0003.flo\n'
p174
aS'Sintel/training/flow/temple_2/frame_0004.flo\n'
p175
aS'Sintel/training/flow/temple_2/frame_0005.flo\n'
p176
aS'Sintel/training/flow/temple_2/frame_0006.flo\n'
p177
aS'Sintel/training/flow/temple_2/frame_0007.flo\n'
p178
aS'Sintel/training/flow/temple_2/frame_0008.flo\n'
p179
aS'Sintel/training/flow/temple_2/frame_0009.flo\n'
p180
aS'Sintel/training/flow/temple_2/frame_0010.flo\n'
p181
aS'Sintel/training/flow/temple_2/frame_0011.flo\n'
p182
aS'Sintel/training/flow/temple_2/frame_0012.flo\n'
p183
aS'Sintel/training/flow/temple_2/frame_0013.flo\n'
p184
aS'Sintel/training/flow/temple_2/frame_0014.flo\n'
p185
aS'Sintel/training/flow/temple_2/frame_0015.flo\n'
p186
aS'Sintel/training/flow/temple_2/frame_0016.flo\n'
p187
aS'Sintel/training/flow/temple_2/frame_0017.flo\n'
p188
aS'Sintel/training/flow/temple_2/frame_0018.flo\n'
p189
aS'Sintel/training/flow/temple_2/frame_0019.flo\n'
p190
aS'Sintel/training/flow/temple_2/frame_0020.flo\n'
p191
aS'Sintel/training/flow/temple_2/frame_0021.flo\n'
p192
aS'Sintel/training/flow/temple_2/frame_0022.flo\n'
p193
aS'Sintel/training/flow/temple_2/frame_0023.flo\n'
p194
aS'Sintel/training/flow/temple_2/frame_0024.flo\n'
p195
aS'Sintel/training/flow/temple_2/frame_0025.flo\n'
p196
aS'Sintel/training/flow/temple_2/frame_0026.flo\n'
p197
aS'Sintel/training/flow/temple_2/frame_0027.flo\n'
p198
aS'Sintel/training/flow/temple_2/frame_0028.flo\n'
p199
aS'Sintel/training/flow/temple_2/frame_0029.flo\n'
p200
aS'Sintel/training/flow/temple_2/frame_0030.flo\n'
p201
aS'Sintel/training/flow/temple_2/frame_0031.flo\n'
p202
aS'Sintel/training/flow/temple_2/frame_0032.flo\n'
p203
aS'Sintel/training/flow/temple_2/frame_0033.flo\n'
p204
aS'Sintel/training/flow/temple_2/frame_0034.flo\n'
p205
aS'Sintel/training/flow/temple_2/frame_0035.flo\n'
p206
aS'Sintel/training/flow/temple_2/frame_0036.flo\n'
p207
aS'Sintel/training/flow/temple_2/frame_0037.flo\n'
p208
aS'Sintel/training/flow/temple_2/frame_0038.flo\n'
p209
aS'Sintel/training/flow/temple_2/frame_0039.flo\n'
p210
aS'Sintel/training/flow/temple_2/frame_0040.flo\n'
p211
aS'Sintel/training/flow/temple_2/frame_0041.flo\n'
p212
aS'Sintel/training/flow/temple_2/frame_0042.flo\n'
p213
aS'Sintel/training/flow/temple_2/frame_0043.flo\n'
p214
aS'Sintel/training/flow/temple_2/frame_0044.flo\n'
p215
aS'Sintel/training/flow/temple_2/frame_0045.flo\n'
p216
aS'Sintel/training/flow/temple_2/frame_0046.flo\n'
p217
aS'Sintel/training/flow/temple_2/frame_0047.flo\n'
p218
aS'Sintel/training/flow/temple_2/frame_0048.flo\n'
p219
aS'Sintel/training/flow/temple_2/frame_0049.flo\n'
p220
aa(lp221
S'Sintel/training/flow/shaman_3/frame_0001.flo\n'
p222
aS'Sintel/training/flow/shaman_3/frame_0002.flo\n'
p223
aS'Sintel/training/flow/shaman_3/frame_0003.flo\n'
p224
aS'Sintel/training/flow/shaman_3/frame_0004.flo\n'
p225
aS'Sintel/training/flow/shaman_3/frame_0005.flo\n'
p226
aS'Sintel/training/flow/shaman_3/frame_0006.flo\n'
p227
aS'Sintel/training/flow/shaman_3/frame_0007.flo\n'
p228
aS'Sintel/training/flow/shaman_3/frame_0008.flo\n'
p229
aS'Sintel/training/flow/shaman_3/frame_0009.flo\n'
p230
aS'Sintel/training/flow/shaman_3/frame_0010.flo\n'
p231
aS'Sintel/training/flow/shaman_3/frame_0011.flo\n'
p232
aS'Sintel/training/flow/shaman_3/frame_0012.flo\n'
p233
aS'Sintel/training/flow/shaman_3/frame_0013.flo\n'
p234
aS'Sintel/training/flow/shaman_3/frame_0014.flo\n'
p235
aS'Sintel/training/flow/shaman_3/frame_0015.flo\n'
p236
aS'Sintel/training/flow/shaman_3/frame_0016.flo\n'
p237
aS'Sintel/training/flow/shaman_3/frame_0017.flo\n'
p238
aS'Sintel/training/flow/shaman_3/frame_0018.flo\n'
p239
aS'Sintel/training/flow/shaman_3/frame_0019.flo\n'
p240
aS'Sintel/training/flow/shaman_3/frame_0020.flo\n'
p241
aS'Sintel/training/flow/shaman_3/frame_0021.flo\n'
p242
aS'Sintel/training/flow/shaman_3/frame_0022.flo\n'
p243
aS'Sintel/training/flow/shaman_3/frame_0023.flo\n'
p244
aS'Sintel/training/flow/shaman_3/frame_0024.flo\n'
p245
aS'Sintel/training/flow/shaman_3/frame_0025.flo\n'
p246
aS'Sintel/training/flow/shaman_3/frame_0026.flo\n'
p247
aS'Sintel/training/flow/shaman_3/frame_0027.flo\n'
p248
aS'Sintel/training/flow/shaman_3/frame_0028.flo\n'
p249
aS'Sintel/training/flow/shaman_3/frame_0029.flo\n'
p250
aS'Sintel/training/flow/shaman_3/frame_0030.flo\n'
p251
aS'Sintel/training/flow/shaman_3/frame_0031.flo\n'
p252
aS'Sintel/training/flow/shaman_3/frame_0032.flo\n'
p253
aS'Sintel/training/flow/shaman_3/frame_0033.flo\n'
p254
aS'Sintel/training/flow/shaman_3/frame_0034.flo\n'
p255
aS'Sintel/training/flow/shaman_3/frame_0035.flo\n'
p256
aS'Sintel/training/flow/shaman_3/frame_0036.flo\n'
p257
aS'Sintel/training/flow/shaman_3/frame_0037.flo\n'
p258
aS'Sintel/training/flow/shaman_3/frame_0038.flo\n'
p259
aS'Sintel/training/flow/shaman_3/frame_0039.flo\n'
p260
aS'Sintel/training/flow/shaman_3/frame_0040.flo\n'
p261
aS'Sintel/training/flow/shaman_3/frame_0041.flo\n'
p262
aS'Sintel/training/flow/shaman_3/frame_0042.flo\n'
p263
aS'Sintel/training/flow/shaman_3/frame_0043.flo\n'
p264
aS'Sintel/training/flow/shaman_3/frame_0044.flo\n'
p265
aS'Sintel/training/flow/shaman_3/frame_0045.flo\n'
p266
aS'Sintel/training/flow/shaman_3/frame_0046.flo\n'
p267
aS'Sintel/training/flow/shaman_3/frame_0047.flo\n'
p268
aS'Sintel/training/flow/shaman_3/frame_0048.flo\n'
p269
aS'Sintel/training/flow/shaman_3/frame_0049.flo\n'
p270
aa(lp271
S'Sintel/training/flow/sleeping_2/frame_0001.flo\n'
p272
aS'Sintel/training/flow/sleeping_2/frame_0002.flo\n'
p273
aS'Sintel/training/flow/sleeping_2/frame_0003.flo\n'
p274
aS'Sintel/training/flow/sleeping_2/frame_0004.flo\n'
p275
aS'Sintel/training/flow/sleeping_2/frame_0005.flo\n'
p276
aS'Sintel/training/flow/sleeping_2/frame_0006.flo\n'
p277
aS'Sintel/training/flow/sleeping_2/frame_0007.flo\n'
p278
aS'Sintel/training/flow/sleeping_2/frame_0008.flo\n'
p279
aS'Sintel/training/flow/sleeping_2/frame_0009.flo\n'
p280
aS'Sintel/training/flow/sleeping_2/frame_0010.flo\n'
p281
aS'Sintel/training/flow/sleeping_2/frame_0011.flo\n'
p282
aS'Sintel/training/flow/sleeping_2/frame_0012.flo\n'
p283
aS'Sintel/training/flow/sleeping_2/frame_0013.flo\n'
p284
aS'Sintel/training/flow/sleeping_2/frame_0014.flo\n'
p285
aS'Sintel/training/flow/sleeping_2/frame_0015.flo\n'
p286
aS'Sintel/training/flow/sleeping_2/frame_0016.flo\n'
p287
aS'Sintel/training/flow/sleeping_2/frame_0017.flo\n'
p288
aS'Sintel/training/flow/sleeping_2/frame_0018.flo\n'
p289
aS'Sintel/training/flow/sleeping_2/frame_0019.flo\n'
p290
aS'Sintel/training/flow/sleeping_2/frame_0020.flo\n'
p291
aS'Sintel/training/flow/sleeping_2/frame_0021.flo\n'
p292
aS'Sintel/training/flow/sleeping_2/frame_0022.flo\n'
p293
aS'Sintel/training/flow/sleeping_2/frame_0023.flo\n'
p294
aS'Sintel/training/flow/sleeping_2/frame_0024.flo\n'
p295
aS'Sintel/training/flow/sleeping_2/frame_0025.flo\n'
p296
aS'Sintel/training/flow/sleeping_2/frame_0026.flo\n'
p297
aS'Sintel/training/flow/sleeping_2/frame_0027.flo\n'
p298
aS'Sintel/training/flow/sleeping_2/frame_0028.flo\n'
p299
aS'Sintel/training/flow/sleeping_2/frame_0029.flo\n'
p300
aS'Sintel/training/flow/sleeping_2/frame_0030.flo\n'
p301
aS'Sintel/training/flow/sleeping_2/frame_0031.flo\n'
p302
aS'Sintel/training/flow/sleeping_2/frame_0032.flo\n'
p303
aS'Sintel/training/flow/sleeping_2/frame_0033.flo\n'
p304
aS'Sintel/training/flow/sleeping_2/frame_0034.flo\n'
p305
aS'Sintel/training/flow/sleeping_2/frame_0035.flo\n'
p306
aS'Sintel/training/flow/sleeping_2/frame_0036.flo\n'
p307
aS'Sintel/training/flow/sleeping_2/frame_0037.flo\n'
p308
aS'Sintel/training/flow/sleeping_2/frame_0038.flo\n'
p309
aS'Sintel/training/flow/sleeping_2/frame_0039.flo\n'
p310
aS'Sintel/training/flow/sleeping_2/frame_0040.flo\n'
p311
aS'Sintel/training/flow/sleeping_2/frame_0041.flo\n'
p312
aS'Sintel/training/flow/sleeping_2/frame_0042.flo\n'
p313
aS'Sintel/training/flow/sleeping_2/frame_0043.flo\n'
p314
aS'Sintel/training/flow/sleeping_2/frame_0044.flo\n'
p315
aS'Sintel/training/flow/sleeping_2/frame_0045.flo\n'
p316
aS'Sintel/training/flow/sleeping_2/frame_0046.flo\n'
p317
aS'Sintel/training/flow/sleeping_2/frame_0047.flo\n'
p318
aS'Sintel/training/flow/sleeping_2/frame_0048.flo\n'
p319
aS'Sintel/training/flow/sleeping_2/frame_0049.flo\n'
p320
aa(lp321
S'Sintel/training/flow/market_6/frame_0001.flo\n'
p322
aS'Sintel/training/flow/market_6/frame_0002.flo\n'
p323
aS'Sintel/training/flow/market_6/frame_0003.flo\n'
p324
aS'Sintel/training/flow/market_6/frame_0004.flo\n'
p325
aS'Sintel/training/flow/market_6/frame_0005.flo\n'
p326
aS'Sintel/training/flow/market_6/frame_0006.flo\n'
p327
aS'Sintel/training/flow/market_6/frame_0007.flo\n'
p328
aS'Sintel/training/flow/market_6/frame_0008.flo\n'
p329
aS'Sintel/training/flow/market_6/frame_0009.flo\n'
p330
aS'Sintel/training/flow/market_6/frame_0010.flo\n'
p331
aS'Sintel/training/flow/market_6/frame_0011.flo\n'
p332
aS'Sintel/training/flow/market_6/frame_0012.flo\n'
p333
aS'Sintel/training/flow/market_6/frame_0013.flo\n'
p334
aS'Sintel/training/flow/market_6/frame_0014.flo\n'
p335
aS'Sintel/training/flow/market_6/frame_0015.flo\n'
p336
aS'Sintel/training/flow/market_6/frame_0016.flo\n'
p337
aS'Sintel/training/flow/market_6/frame_0017.flo\n'
p338
aS'Sintel/training/flow/market_6/frame_0018.flo\n'
p339
aS'Sintel/training/flow/market_6/frame_0019.flo\n'
p340
aS'Sintel/training/flow/market_6/frame_0020.flo\n'
p341
aS'Sintel/training/flow/market_6/frame_0021.flo\n'
p342
aS'Sintel/training/flow/market_6/frame_0022.flo\n'
p343
aS'Sintel/training/flow/market_6/frame_0023.flo\n'
p344
aS'Sintel/training/flow/market_6/frame_0024.flo\n'
p345
aS'Sintel/training/flow/market_6/frame_0025.flo\n'
p346
aS'Sintel/training/flow/market_6/frame_0026.flo\n'
p347
aS'Sintel/training/flow/market_6/frame_0027.flo\n'
p348
aS'Sintel/training/flow/market_6/frame_0028.flo\n'
p349
aS'Sintel/training/flow/market_6/frame_0029.flo\n'
p350
aS'Sintel/training/flow/market_6/frame_0030.flo\n'
p351
aS'Sintel/training/flow/market_6/frame_0031.flo\n'
p352
aS'Sintel/training/flow/market_6/frame_0032.flo\n'
p353
aS'Sintel/training/flow/market_6/frame_0033.flo\n'
p354
aS'Sintel/training/flow/market_6/frame_0034.flo\n'
p355
aS'Sintel/training/flow/market_6/frame_0035.flo\n'
p356
aS'Sintel/training/flow/market_6/frame_0036.flo\n'
p357
aS'Sintel/training/flow/market_6/frame_0037.flo\n'
p358
aS'Sintel/training/flow/market_6/frame_0038.flo\n'
p359
aS'Sintel/training/flow/market_6/frame_0039.flo\n'
p360
aa(lp361
S'Sintel/training/flow/cave_4/frame_0001.flo\n'
p362
aS'Sintel/training/flow/cave_4/frame_0002.flo\n'
p363
aS'Sintel/training/flow/cave_4/frame_0003.flo\n'
p364
aS'Sintel/training/flow/cave_4/frame_0004.flo\n'
p365
aS'Sintel/training/flow/cave_4/frame_0005.flo\n'
p366
aS'Sintel/training/flow/cave_4/frame_0006.flo\n'
p367
aS'Sintel/training/flow/cave_4/frame_0007.flo\n'
p368
aS'Sintel/training/flow/cave_4/frame_0008.flo\n'
p369
aS'Sintel/training/flow/cave_4/frame_0009.flo\n'
p370
aS'Sintel/training/flow/cave_4/frame_0010.flo\n'
p371
aS'Sintel/training/flow/cave_4/frame_0011.flo\n'
p372
aS'Sintel/training/flow/cave_4/frame_0012.flo\n'
p373
aS'Sintel/training/flow/cave_4/frame_0013.flo\n'
p374
aS'Sintel/training/flow/cave_4/frame_0014.flo\n'
p375
aS'Sintel/training/flow/cave_4/frame_0015.flo\n'
p376
aS'Sintel/training/flow/cave_4/frame_0016.flo\n'
p377
aS'Sintel/training/flow/cave_4/frame_0017.flo\n'
p378
aS'Sintel/training/flow/cave_4/frame_0018.flo\n'
p379
aS'Sintel/training/flow/cave_4/frame_0019.flo\n'
p380
aS'Sintel/training/flow/cave_4/frame_0020.flo\n'
p381
aS'Sintel/training/flow/cave_4/frame_0021.flo\n'
p382
aS'Sintel/training/flow/cave_4/frame_0022.flo\n'
p383
aS'Sintel/training/flow/cave_4/frame_0023.flo\n'
p384
aS'Sintel/training/flow/cave_4/frame_0024.flo\n'
p385
aS'Sintel/training/flow/cave_4/frame_0025.flo\n'
p386
aS'Sintel/training/flow/cave_4/frame_0026.flo\n'
p387
aS'Sintel/training/flow/cave_4/frame_0027.flo\n'
p388
aS'Sintel/training/flow/cave_4/frame_0028.flo\n'
p389
aS'Sintel/training/flow/cave_4/frame_0029.flo\n'
p390
aS'Sintel/training/flow/cave_4/frame_0030.flo\n'
p391
aS'Sintel/training/flow/cave_4/frame_0031.flo\n'
p392
aS'Sintel/training/flow/cave_4/frame_0032.flo\n'
p393
aS'Sintel/training/flow/cave_4/frame_0033.flo\n'
p394
aS'Sintel/training/flow/cave_4/frame_0034.flo\n'
p395
aS'Sintel/training/flow/cave_4/frame_0035.flo\n'
p396
aS'Sintel/training/flow/cave_4/frame_0036.flo\n'
p397
aS'Sintel/training/flow/cave_4/frame_0037.flo\n'
p398
aS'Sintel/training/flow/cave_4/frame_0038.flo\n'
p399
aS'Sintel/training/flow/cave_4/frame_0039.flo\n'
p400
aS'Sintel/training/flow/cave_4/frame_0040.flo\n'
p401
aS'Sintel/training/flow/cave_4/frame_0041.flo\n'
p402
aS'Sintel/training/flow/cave_4/frame_0042.flo\n'
p403
aS'Sintel/training/flow/cave_4/frame_0043.flo\n'
p404
aS'Sintel/training/flow/cave_4/frame_0044.flo\n'
p405
aS'Sintel/training/flow/cave_4/frame_0045.flo\n'
p406
aS'Sintel/training/flow/cave_4/frame_0046.flo\n'
p407
aS'Sintel/training/flow/cave_4/frame_0047.flo\n'
p408
aS'Sintel/training/flow/cave_4/frame_0048.flo\n'
p409
aS'Sintel/training/flow/cave_4/frame_0049.flo\n'
p410
aa(lp411
S'Sintel/training/flow/ambush_2/frame_0001.flo\n'
p412
aS'Sintel/training/flow/ambush_2/frame_0002.flo\n'
p413
aS'Sintel/training/flow/ambush_2/frame_0003.flo\n'
p414
aS'Sintel/training/flow/ambush_2/frame_0004.flo\n'
p415
aS'Sintel/training/flow/ambush_2/frame_0005.flo\n'
p416
aS'Sintel/training/flow/ambush_2/frame_0006.flo\n'
p417
aS'Sintel/training/flow/ambush_2/frame_0007.flo\n'
p418
aS'Sintel/training/flow/ambush_2/frame_0008.flo\n'
p419
aS'Sintel/training/flow/ambush_2/frame_0009.flo\n'
p420
aS'Sintel/training/flow/ambush_2/frame_0010.flo\n'
p421
aS'Sintel/training/flow/ambush_2/frame_0011.flo\n'
p422
aS'Sintel/training/flow/ambush_2/frame_0012.flo\n'
p423
aS'Sintel/training/flow/ambush_2/frame_0013.flo\n'
p424
aS'Sintel/training/flow/ambush_2/frame_0014.flo\n'
p425
aS'Sintel/training/flow/ambush_2/frame_0015.flo\n'
p426
aS'Sintel/training/flow/ambush_2/frame_0016.flo\n'
p427
aS'Sintel/training/flow/ambush_2/frame_0017.flo\n'
p428
aS'Sintel/training/flow/ambush_2/frame_0018.flo\n'
p429
aS'Sintel/training/flow/ambush_2/frame_0019.flo\n'
p430
aS'Sintel/training/flow/ambush_2/frame_0020.flo\n'
p431
aa(lp432
S'Sintel/training/flow/market_5/frame_0001.flo\n'
p433
aS'Sintel/training/flow/market_5/frame_0002.flo\n'
p434
aS'Sintel/training/flow/market_5/frame_0003.flo\n'
p435
aS'Sintel/training/flow/market_5/frame_0004.flo\n'
p436
aS'Sintel/training/flow/market_5/frame_0005.flo\n'
p437
aS'Sintel/training/flow/market_5/frame_0006.flo\n'
p438
aS'Sintel/training/flow/market_5/frame_0007.flo\n'
p439
aS'Sintel/training/flow/market_5/frame_0008.flo\n'
p440
aS'Sintel/training/flow/market_5/frame_0009.flo\n'
p441
aS'Sintel/training/flow/market_5/frame_0010.flo\n'
p442
aS'Sintel/training/flow/market_5/frame_0011.flo\n'
p443
aS'Sintel/training/flow/market_5/frame_0012.flo\n'
p444
aS'Sintel/training/flow/market_5/frame_0013.flo\n'
p445
aS'Sintel/training/flow/market_5/frame_0014.flo\n'
p446
aS'Sintel/training/flow/market_5/frame_0015.flo\n'
p447
aS'Sintel/training/flow/market_5/frame_0016.flo\n'
p448
aS'Sintel/training/flow/market_5/frame_0017.flo\n'
p449
aS'Sintel/training/flow/market_5/frame_0018.flo\n'
p450
aS'Sintel/training/flow/market_5/frame_0019.flo\n'
p451
aS'Sintel/training/flow/market_5/frame_0020.flo\n'
p452
aS'Sintel/training/flow/market_5/frame_0021.flo\n'
p453
aS'Sintel/training/flow/market_5/frame_0022.flo\n'
p454
aS'Sintel/training/flow/market_5/frame_0023.flo\n'
p455
aS'Sintel/training/flow/market_5/frame_0024.flo\n'
p456
aS'Sintel/training/flow/market_5/frame_0025.flo\n'
p457
aS'Sintel/training/flow/market_5/frame_0026.flo\n'
p458
aS'Sintel/training/flow/market_5/frame_0027.flo\n'
p459
aS'Sintel/training/flow/market_5/frame_0028.flo\n'
p460
aS'Sintel/training/flow/market_5/frame_0029.flo\n'
p461
aS'Sintel/training/flow/market_5/frame_0030.flo\n'
p462
aS'Sintel/training/flow/market_5/frame_0031.flo\n'
p463
aS'Sintel/training/flow/market_5/frame_0032.flo\n'
p464
aS'Sintel/training/flow/market_5/frame_0033.flo\n'
p465
aS'Sintel/training/flow/market_5/frame_0034.flo\n'
p466
aS'Sintel/training/flow/market_5/frame_0035.flo\n'
p467
aS'Sintel/training/flow/market_5/frame_0036.flo\n'
p468
aS'Sintel/training/flow/market_5/frame_0037.flo\n'
p469
aS'Sintel/training/flow/market_5/frame_0038.flo\n'
p470
aS'Sintel/training/flow/market_5/frame_0039.flo\n'
p471
aS'Sintel/training/flow/market_5/frame_0040.flo\n'
p472
aS'Sintel/training/flow/market_5/frame_0041.flo\n'
p473
aS'Sintel/training/flow/market_5/frame_0042.flo\n'
p474
aS'Sintel/training/flow/market_5/frame_0043.flo\n'
p475
aS'Sintel/training/flow/market_5/frame_0044.flo\n'
p476
aS'Sintel/training/flow/market_5/frame_0045.flo\n'
p477
aS'Sintel/training/flow/market_5/frame_0046.flo\n'
p478
aS'Sintel/training/flow/market_5/frame_0047.flo\n'
p479
aS'Sintel/training/flow/market_5/frame_0048.flo\n'
p480
aS'Sintel/training/flow/market_5/frame_0049.flo\n'
p481
aa(lp482
S'Sintel/training/flow/alley_2/frame_0001.flo\n'
p483
aS'Sintel/training/flow/alley_2/frame_0002.flo\n'
p484
aS'Sintel/training/flow/alley_2/frame_0003.flo\n'
p485
aS'Sintel/training/flow/alley_2/frame_0004.flo\n'
p486
aS'Sintel/training/flow/alley_2/frame_0005.flo\n'
p487
aS'Sintel/training/flow/alley_2/frame_0006.flo\n'
p488
aS'Sintel/training/flow/alley_2/frame_0007.flo\n'
p489
aS'Sintel/training/flow/alley_2/frame_0008.flo\n'
p490
aS'Sintel/training/flow/alley_2/frame_0009.flo\n'
p491
aS'Sintel/training/flow/alley_2/frame_0010.flo\n'
p492
aS'Sintel/training/flow/alley_2/frame_0011.flo\n'
p493
aS'Sintel/training/flow/alley_2/frame_0012.flo\n'
p494
aS'Sintel/training/flow/alley_2/frame_0013.flo\n'
p495
aS'Sintel/training/flow/alley_2/frame_0014.flo\n'
p496
aS'Sintel/training/flow/alley_2/frame_0015.flo\n'
p497
aS'Sintel/training/flow/alley_2/frame_0016.flo\n'
p498
aS'Sintel/training/flow/alley_2/frame_0017.flo\n'
p499
aS'Sintel/training/flow/alley_2/frame_0018.flo\n'
p500
aS'Sintel/training/flow/alley_2/frame_0019.flo\n'
p501
aS'Sintel/training/flow/alley_2/frame_0020.flo\n'
p502
aS'Sintel/training/flow/alley_2/frame_0021.flo\n'
p503
aS'Sintel/training/flow/alley_2/frame_0022.flo\n'
p504
aS'Sintel/training/flow/alley_2/frame_0023.flo\n'
p505
aS'Sintel/training/flow/alley_2/frame_0024.flo\n'
p506
aS'Sintel/training/flow/alley_2/frame_0025.flo\n'
p507
aS'Sintel/training/flow/alley_2/frame_0026.flo\n'
p508
aS'Sintel/training/flow/alley_2/frame_0027.flo\n'
p509
aS'Sintel/training/flow/alley_2/frame_0028.flo\n'
p510
aS'Sintel/training/flow/alley_2/frame_0029.flo\n'
p511
aS'Sintel/training/flow/alley_2/frame_0030.flo\n'
p512
aS'Sintel/training/flow/alley_2/frame_0031.flo\n'
p513
aS'Sintel/training/flow/alley_2/frame_0032.flo\n'
p514
aS'Sintel/training/flow/alley_2/frame_0033.flo\n'
p515
aS'Sintel/training/flow/alley_2/frame_0034.flo\n'
p516
aS'Sintel/training/flow/alley_2/frame_0035.flo\n'
p517
aS'Sintel/training/flow/alley_2/frame_0036.flo\n'
p518
aS'Sintel/training/flow/alley_2/frame_0037.flo\n'
p519
aS'Sintel/training/flow/alley_2/frame_0038.flo\n'
p520
aS'Sintel/training/flow/alley_2/frame_0039.flo\n'
p521
aS'Sintel/training/flow/alley_2/frame_0040.flo\n'
p522
aS'Sintel/training/flow/alley_2/frame_0041.flo\n'
p523
aS'Sintel/training/flow/alley_2/frame_0042.flo\n'
p524
aS'Sintel/training/flow/alley_2/frame_0043.flo\n'
p525
aS'Sintel/training/flow/alley_2/frame_0044.flo\n'
p526
aS'Sintel/training/flow/alley_2/frame_0045.flo\n'
p527
aS'Sintel/training/flow/alley_2/frame_0046.flo\n'
p528
aS'Sintel/training/flow/alley_2/frame_0047.flo\n'
p529
aS'Sintel/training/flow/alley_2/frame_0048.flo\n'
p530
aS'Sintel/training/flow/alley_2/frame_0049.flo\n'
p531
aa(lp532
S'Sintel/training/flow/ambush_5/frame_0001.flo\n'
p533
aS'Sintel/training/flow/ambush_5/frame_0002.flo\n'
p534
aS'Sintel/training/flow/ambush_5/frame_0003.flo\n'
p535
aS'Sintel/training/flow/ambush_5/frame_0004.flo\n'
p536
aS'Sintel/training/flow/ambush_5/frame_0005.flo\n'
p537
aS'Sintel/training/flow/ambush_5/frame_0006.flo\n'
p538
aS'Sintel/training/flow/ambush_5/frame_0007.flo\n'
p539
aS'Sintel/training/flow/ambush_5/frame_0008.flo\n'
p540
aS'Sintel/training/flow/ambush_5/frame_0009.flo\n'
p541
aS'Sintel/training/flow/ambush_5/frame_0010.flo\n'
p542
aS'Sintel/training/flow/ambush_5/frame_0011.flo\n'
p543
aS'Sintel/training/flow/ambush_5/frame_0012.flo\n'
p544
aS'Sintel/training/flow/ambush_5/frame_0013.flo\n'
p545
aS'Sintel/training/flow/ambush_5/frame_0014.flo\n'
p546
aS'Sintel/training/flow/ambush_5/frame_0015.flo\n'
p547
aS'Sintel/training/flow/ambush_5/frame_0016.flo\n'
p548
aS'Sintel/training/flow/ambush_5/frame_0017.flo\n'
p549
aS'Sintel/training/flow/ambush_5/frame_0018.flo\n'
p550
aS'Sintel/training/flow/ambush_5/frame_0019.flo\n'
p551
aS'Sintel/training/flow/ambush_5/frame_0020.flo\n'
p552
aS'Sintel/training/flow/ambush_5/frame_0021.flo\n'
p553
aS'Sintel/training/flow/ambush_5/frame_0022.flo\n'
p554
aS'Sintel/training/flow/ambush_5/frame_0023.flo\n'
p555
aS'Sintel/training/flow/ambush_5/frame_0024.flo\n'
p556
aS'Sintel/training/flow/ambush_5/frame_0025.flo\n'
p557
aS'Sintel/training/flow/ambush_5/frame_0026.flo\n'
p558
aS'Sintel/training/flow/ambush_5/frame_0027.flo\n'
p559
aS'Sintel/training/flow/ambush_5/frame_0028.flo\n'
p560
aS'Sintel/training/flow/ambush_5/frame_0029.flo\n'
p561
aS'Sintel/training/flow/ambush_5/frame_0030.flo\n'
p562
aS'Sintel/training/flow/ambush_5/frame_0031.flo\n'
p563
aS'Sintel/training/flow/ambush_5/frame_0032.flo\n'
p564
aS'Sintel/training/flow/ambush_5/frame_0033.flo\n'
p565
aS'Sintel/training/flow/ambush_5/frame_0034.flo\n'
p566
aS'Sintel/training/flow/ambush_5/frame_0035.flo\n'
p567
aS'Sintel/training/flow/ambush_5/frame_0036.flo\n'
p568
aS'Sintel/training/flow/ambush_5/frame_0037.flo\n'
p569
aS'Sintel/training/flow/ambush_5/frame_0038.flo\n'
p570
aS'Sintel/training/flow/ambush_5/frame_0039.flo\n'
p571
aS'Sintel/training/flow/ambush_5/frame_0040.flo\n'
p572
aS'Sintel/training/flow/ambush_5/frame_0041.flo\n'
p573
aS'Sintel/training/flow/ambush_5/frame_0042.flo\n'
p574
aS'Sintel/training/flow/ambush_5/frame_0043.flo\n'
p575
aS'Sintel/training/flow/ambush_5/frame_0044.flo\n'
p576
aS'Sintel/training/flow/ambush_5/frame_0045.flo\n'
p577
aS'Sintel/training/flow/ambush_5/frame_0046.flo\n'
p578
aS'Sintel/training/flow/ambush_5/frame_0047.flo\n'
p579
aS'Sintel/training/flow/ambush_5/frame_0048.flo\n'
p580
aS'Sintel/training/flow/ambush_5/frame_0049.flo\n'
p581
aa(lp582
S'Sintel/training/flow/ambush_7/frame_0001.flo\n'
p583
aS'Sintel/training/flow/ambush_7/frame_0002.flo\n'
p584
aS'Sintel/training/flow/ambush_7/frame_0003.flo\n'
p585
aS'Sintel/training/flow/ambush_7/frame_0004.flo\n'
p586
aS'Sintel/training/flow/ambush_7/frame_0005.flo\n'
p587
aS'Sintel/training/flow/ambush_7/frame_0006.flo\n'
p588
aS'Sintel/training/flow/ambush_7/frame_0007.flo\n'
p589
aS'Sintel/training/flow/ambush_7/frame_0008.flo\n'
p590
aS'Sintel/training/flow/ambush_7/frame_0009.flo\n'
p591
aS'Sintel/training/flow/ambush_7/frame_0010.flo\n'
p592
aS'Sintel/training/flow/ambush_7/frame_0011.flo\n'
p593
aS'Sintel/training/flow/ambush_7/frame_0012.flo\n'
p594
aS'Sintel/training/flow/ambush_7/frame_0013.flo\n'
p595
aS'Sintel/training/flow/ambush_7/frame_0014.flo\n'
p596
aS'Sintel/training/flow/ambush_7/frame_0015.flo\n'
p597
aS'Sintel/training/flow/ambush_7/frame_0016.flo\n'
p598
aS'Sintel/training/flow/ambush_7/frame_0017.flo\n'
p599
aS'Sintel/training/flow/ambush_7/frame_0018.flo\n'
p600
aS'Sintel/training/flow/ambush_7/frame_0019.flo\n'
p601
aS'Sintel/training/flow/ambush_7/frame_0020.flo\n'
p602
aS'Sintel/training/flow/ambush_7/frame_0021.flo\n'
p603
aS'Sintel/training/flow/ambush_7/frame_0022.flo\n'
p604
aS'Sintel/training/flow/ambush_7/frame_0023.flo\n'
p605
aS'Sintel/training/flow/ambush_7/frame_0024.flo\n'
p606
aS'Sintel/training/flow/ambush_7/frame_0025.flo\n'
p607
aS'Sintel/training/flow/ambush_7/frame_0026.flo\n'
p608
aS'Sintel/training/flow/ambush_7/frame_0027.flo\n'
p609
aS'Sintel/training/flow/ambush_7/frame_0028.flo\n'
p610
aS'Sintel/training/flow/ambush_7/frame_0029.flo\n'
p611
aS'Sintel/training/flow/ambush_7/frame_0030.flo\n'
p612
aS'Sintel/training/flow/ambush_7/frame_0031.flo\n'
p613
aS'Sintel/training/flow/ambush_7/frame_0032.flo\n'
p614
aS'Sintel/training/flow/ambush_7/frame_0033.flo\n'
p615
aS'Sintel/training/flow/ambush_7/frame_0034.flo\n'
p616
aS'Sintel/training/flow/ambush_7/frame_0035.flo\n'
p617
aS'Sintel/training/flow/ambush_7/frame_0036.flo\n'
p618
aS'Sintel/training/flow/ambush_7/frame_0037.flo\n'
p619
aS'Sintel/training/flow/ambush_7/frame_0038.flo\n'
p620
aS'Sintel/training/flow/ambush_7/frame_0039.flo\n'
p621
aS'Sintel/training/flow/ambush_7/frame_0040.flo\n'
p622
aS'Sintel/training/flow/ambush_7/frame_0041.flo\n'
p623
aS'Sintel/training/flow/ambush_7/frame_0042.flo\n'
p624
aS'Sintel/training/flow/ambush_7/frame_0043.flo\n'
p625
aS'Sintel/training/flow/ambush_7/frame_0044.flo\n'
p626
aS'Sintel/training/flow/ambush_7/frame_0045.flo\n'
p627
aS'Sintel/training/flow/ambush_7/frame_0046.flo\n'
p628
aS'Sintel/training/flow/ambush_7/frame_0047.flo\n'
p629
aS'Sintel/training/flow/ambush_7/frame_0048.flo\n'
p630
aS'Sintel/training/flow/ambush_7/frame_0049.flo\n'
p631
aa(lp632
S'Sintel/training/flow/temple_3/frame_0001.flo\n'
p633
aS'Sintel/training/flow/temple_3/frame_0002.flo\n'
p634
aS'Sintel/training/flow/temple_3/frame_0003.flo\n'
p635
aS'Sintel/training/flow/temple_3/frame_0004.flo\n'
p636
aS'Sintel/training/flow/temple_3/frame_0005.flo\n'
p637
aS'Sintel/training/flow/temple_3/frame_0006.flo\n'
p638
aS'Sintel/training/flow/temple_3/frame_0007.flo\n'
p639
aS'Sintel/training/flow/temple_3/frame_0008.flo\n'
p640
aS'Sintel/training/flow/temple_3/frame_0009.flo\n'
p641
aS'Sintel/training/flow/temple_3/frame_0010.flo\n'
p642
aS'Sintel/training/flow/temple_3/frame_0011.flo\n'
p643
aS'Sintel/training/flow/temple_3/frame_0012.flo\n'
p644
aS'Sintel/training/flow/temple_3/frame_0013.flo\n'
p645
aS'Sintel/training/flow/temple_3/frame_0014.flo\n'
p646
aS'Sintel/training/flow/temple_3/frame_0015.flo\n'
p647
aS'Sintel/training/flow/temple_3/frame_0016.flo\n'
p648
aS'Sintel/training/flow/temple_3/frame_0017.flo\n'
p649
aS'Sintel/training/flow/temple_3/frame_0018.flo\n'
p650
aS'Sintel/training/flow/temple_3/frame_0019.flo\n'
p651
aS'Sintel/training/flow/temple_3/frame_0020.flo\n'
p652
aS'Sintel/training/flow/temple_3/frame_0021.flo\n'
p653
aS'Sintel/training/flow/temple_3/frame_0022.flo\n'
p654
aS'Sintel/training/flow/temple_3/frame_0023.flo\n'
p655
aS'Sintel/training/flow/temple_3/frame_0024.flo\n'
p656
aS'Sintel/training/flow/temple_3/frame_0025.flo\n'
p657
aS'Sintel/training/flow/temple_3/frame_0026.flo\n'
p658
aS'Sintel/training/flow/temple_3/frame_0027.flo\n'
p659
aS'Sintel/training/flow/temple_3/frame_0028.flo\n'
p660
aS'Sintel/training/flow/temple_3/frame_0029.flo\n'
p661
aS'Sintel/training/flow/temple_3/frame_0030.flo\n'
p662
aS'Sintel/training/flow/temple_3/frame_0031.flo\n'
p663
aS'Sintel/training/flow/temple_3/frame_0032.flo\n'
p664
aS'Sintel/training/flow/temple_3/frame_0033.flo\n'
p665
aS'Sintel/training/flow/temple_3/frame_0034.flo\n'
p666
aS'Sintel/training/flow/temple_3/frame_0035.flo\n'
p667
aS'Sintel/training/flow/temple_3/frame_0036.flo\n'
p668
aS'Sintel/training/flow/temple_3/frame_0037.flo\n'
p669
aS'Sintel/training/flow/temple_3/frame_0038.flo\n'
p670
aS'Sintel/training/flow/temple_3/frame_0039.flo\n'
p671
aS'Sintel/training/flow/temple_3/frame_0040.flo\n'
p672
aS'Sintel/training/flow/temple_3/frame_0041.flo\n'
p673
aS'Sintel/training/flow/temple_3/frame_0042.flo\n'
p674
aS'Sintel/training/flow/temple_3/frame_0043.flo\n'
p675
aS'Sintel/training/flow/temple_3/frame_0044.flo\n'
p676
aS'Sintel/training/flow/temple_3/frame_0045.flo\n'
p677
aS'Sintel/training/flow/temple_3/frame_0046.flo\n'
p678
aS'Sintel/training/flow/temple_3/frame_0047.flo\n'
p679
aS'Sintel/training/flow/temple_3/frame_0048.flo\n'
p680
aS'Sintel/training/flow/temple_3/frame_0049.flo\n'
p681
aa(lp682
S'Sintel/training/flow/bandage_2/frame_0001.flo\n'
p683
aS'Sintel/training/flow/bandage_2/frame_0002.flo\n'
p684
aS'Sintel/training/flow/bandage_2/frame_0003.flo\n'
p685
aS'Sintel/training/flow/bandage_2/frame_0004.flo\n'
p686
aS'Sintel/training/flow/bandage_2/frame_0005.flo\n'
p687
aS'Sintel/training/flow/bandage_2/frame_0006.flo\n'
p688
aS'Sintel/training/flow/bandage_2/frame_0007.flo\n'
p689
aS'Sintel/training/flow/bandage_2/frame_0008.flo\n'
p690
aS'Sintel/training/flow/bandage_2/frame_0009.flo\n'
p691
aS'Sintel/training/flow/bandage_2/frame_0010.flo\n'
p692
aS'Sintel/training/flow/bandage_2/frame_0011.flo\n'
p693
aS'Sintel/training/flow/bandage_2/frame_0012.flo\n'
p694
aS'Sintel/training/flow/bandage_2/frame_0013.flo\n'
p695
aS'Sintel/training/flow/bandage_2/frame_0014.flo\n'
p696
aS'Sintel/training/flow/bandage_2/frame_0015.flo\n'
p697
aS'Sintel/training/flow/bandage_2/frame_0016.flo\n'
p698
aS'Sintel/training/flow/bandage_2/frame_0017.flo\n'
p699
aS'Sintel/training/flow/bandage_2/frame_0018.flo\n'
p700
aS'Sintel/training/flow/bandage_2/frame_0019.flo\n'
p701
aS'Sintel/training/flow/bandage_2/frame_0020.flo\n'
p702
aS'Sintel/training/flow/bandage_2/frame_0021.flo\n'
p703
aS'Sintel/training/flow/bandage_2/frame_0022.flo\n'
p704
aS'Sintel/training/flow/bandage_2/frame_0023.flo\n'
p705
aS'Sintel/training/flow/bandage_2/frame_0024.flo\n'
p706
aS'Sintel/training/flow/bandage_2/frame_0025.flo\n'
p707
aS'Sintel/training/flow/bandage_2/frame_0026.flo\n'
p708
aS'Sintel/training/flow/bandage_2/frame_0027.flo\n'
p709
aS'Sintel/training/flow/bandage_2/frame_0028.flo\n'
p710
aS'Sintel/training/flow/bandage_2/frame_0029.flo\n'
p711
aS'Sintel/training/flow/bandage_2/frame_0030.flo\n'
p712
aS'Sintel/training/flow/bandage_2/frame_0031.flo\n'
p713
aS'Sintel/training/flow/bandage_2/frame_0032.flo\n'
p714
aS'Sintel/training/flow/bandage_2/frame_0033.flo\n'
p715
aS'Sintel/training/flow/bandage_2/frame_0034.flo\n'
p716
aS'Sintel/training/flow/bandage_2/frame_0035.flo\n'
p717
aS'Sintel/training/flow/bandage_2/frame_0036.flo\n'
p718
aS'Sintel/training/flow/bandage_2/frame_0037.flo\n'
p719
aS'Sintel/training/flow/bandage_2/frame_0038.flo\n'
p720
aS'Sintel/training/flow/bandage_2/frame_0039.flo\n'
p721
aS'Sintel/training/flow/bandage_2/frame_0040.flo\n'
p722
aS'Sintel/training/flow/bandage_2/frame_0041.flo\n'
p723
aS'Sintel/training/flow/bandage_2/frame_0042.flo\n'
p724
aS'Sintel/training/flow/bandage_2/frame_0043.flo\n'
p725
aS'Sintel/training/flow/bandage_2/frame_0044.flo\n'
p726
aS'Sintel/training/flow/bandage_2/frame_0045.flo\n'
p727
aS'Sintel/training/flow/bandage_2/frame_0046.flo\n'
p728
aS'Sintel/training/flow/bandage_2/frame_0047.flo\n'
p729
aS'Sintel/training/flow/bandage_2/frame_0048.flo\n'
p730
aS'Sintel/training/flow/bandage_2/frame_0049.flo\n'
p731
aa(lp732
S'Sintel/training/flow/mountain_1/frame_0001.flo\n'
p733
aS'Sintel/training/flow/mountain_1/frame_0002.flo\n'
p734
aS'Sintel/training/flow/mountain_1/frame_0003.flo\n'
p735
aS'Sintel/training/flow/mountain_1/frame_0004.flo\n'
p736
aS'Sintel/training/flow/mountain_1/frame_0005.flo\n'
p737
aS'Sintel/training/flow/mountain_1/frame_0006.flo\n'
p738
aS'Sintel/training/flow/mountain_1/frame_0007.flo\n'
p739
aS'Sintel/training/flow/mountain_1/frame_0008.flo\n'
p740
aS'Sintel/training/flow/mountain_1/frame_0009.flo\n'
p741
aS'Sintel/training/flow/mountain_1/frame_0010.flo\n'
p742
aS'Sintel/training/flow/mountain_1/frame_0011.flo\n'
p743
aS'Sintel/training/flow/mountain_1/frame_0012.flo\n'
p744
aS'Sintel/training/flow/mountain_1/frame_0013.flo\n'
p745
aS'Sintel/training/flow/mountain_1/frame_0014.flo\n'
p746
aS'Sintel/training/flow/mountain_1/frame_0015.flo\n'
p747
aS'Sintel/training/flow/mountain_1/frame_0016.flo\n'
p748
aS'Sintel/training/flow/mountain_1/frame_0017.flo\n'
p749
aS'Sintel/training/flow/mountain_1/frame_0018.flo\n'
p750
aS'Sintel/training/flow/mountain_1/frame_0019.flo\n'
p751
aS'Sintel/training/flow/mountain_1/frame_0020.flo\n'
p752
aS'Sintel/training/flow/mountain_1/frame_0021.flo\n'
p753
aS'Sintel/training/flow/mountain_1/frame_0022.flo\n'
p754
aS'Sintel/training/flow/mountain_1/frame_0023.flo\n'
p755
aS'Sintel/training/flow/mountain_1/frame_0024.flo\n'
p756
aS'Sintel/training/flow/mountain_1/frame_0025.flo\n'
p757
aS'Sintel/training/flow/mountain_1/frame_0026.flo\n'
p758
aS'Sintel/training/flow/mountain_1/frame_0027.flo\n'
p759
aS'Sintel/training/flow/mountain_1/frame_0028.flo\n'
p760
aS'Sintel/training/flow/mountain_1/frame_0029.flo\n'
p761
aS'Sintel/training/flow/mountain_1/frame_0030.flo\n'
p762
aS'Sintel/training/flow/mountain_1/frame_0031.flo\n'
p763
aS'Sintel/training/flow/mountain_1/frame_0032.flo\n'
p764
aS'Sintel/training/flow/mountain_1/frame_0033.flo\n'
p765
aS'Sintel/training/flow/mountain_1/frame_0034.flo\n'
p766
aS'Sintel/training/flow/mountain_1/frame_0035.flo\n'
p767
aS'Sintel/training/flow/mountain_1/frame_0036.flo\n'
p768
aS'Sintel/training/flow/mountain_1/frame_0037.flo\n'
p769
aS'Sintel/training/flow/mountain_1/frame_0038.flo\n'
p770
aS'Sintel/training/flow/mountain_1/frame_0039.flo\n'
p771
aS'Sintel/training/flow/mountain_1/frame_0040.flo\n'
p772
aS'Sintel/training/flow/mountain_1/frame_0041.flo\n'
p773
aS'Sintel/training/flow/mountain_1/frame_0042.flo\n'
p774
aS'Sintel/training/flow/mountain_1/frame_0043.flo\n'
p775
aS'Sintel/training/flow/mountain_1/frame_0044.flo\n'
p776
aS'Sintel/training/flow/mountain_1/frame_0045.flo\n'
p777
aS'Sintel/training/flow/mountain_1/frame_0046.flo\n'
p778
aS'Sintel/training/flow/mountain_1/frame_0047.flo\n'
p779
aS'Sintel/training/flow/mountain_1/frame_0048.flo\n'
p780
aS'Sintel/training/flow/mountain_1/frame_0049.flo\n'
p781
aa(lp782
S'Sintel/training/flow/alley_1/frame_0001.flo\n'
p783
aS'Sintel/training/flow/alley_1/frame_0002.flo\n'
p784
aS'Sintel/training/flow/alley_1/frame_0003.flo\n'
p785
aS'Sintel/training/flow/alley_1/frame_0004.flo\n'
p786
aS'Sintel/training/flow/alley_1/frame_0005.flo\n'
p787
aS'Sintel/training/flow/alley_1/frame_0006.flo\n'
p788
aS'Sintel/training/flow/alley_1/frame_0007.flo\n'
p789
aS'Sintel/training/flow/alley_1/frame_0008.flo\n'
p790
aS'Sintel/training/flow/alley_1/frame_0009.flo\n'
p791
aS'Sintel/training/flow/alley_1/frame_0010.flo\n'
p792
aS'Sintel/training/flow/alley_1/frame_0011.flo\n'
p793
aS'Sintel/training/flow/alley_1/frame_0012.flo\n'
p794
aS'Sintel/training/flow/alley_1/frame_0013.flo\n'
p795
aS'Sintel/training/flow/alley_1/frame_0014.flo\n'
p796
aS'Sintel/training/flow/alley_1/frame_0015.flo\n'
p797
aS'Sintel/training/flow/alley_1/frame_0016.flo\n'
p798
aS'Sintel/training/flow/alley_1/frame_0017.flo\n'
p799
aS'Sintel/training/flow/alley_1/frame_0018.flo\n'
p800
aS'Sintel/training/flow/alley_1/frame_0019.flo\n'
p801
aS'Sintel/training/flow/alley_1/frame_0020.flo\n'
p802
aS'Sintel/training/flow/alley_1/frame_0021.flo\n'
p803
aS'Sintel/training/flow/alley_1/frame_0022.flo\n'
p804
aS'Sintel/training/flow/alley_1/frame_0023.flo\n'
p805
aS'Sintel/training/flow/alley_1/frame_0024.flo\n'
p806
aS'Sintel/training/flow/alley_1/frame_0025.flo\n'
p807
aS'Sintel/training/flow/alley_1/frame_0026.flo\n'
p808
aS'Sintel/training/flow/alley_1/frame_0027.flo\n'
p809
aS'Sintel/training/flow/alley_1/frame_0028.flo\n'
p810
aS'Sintel/training/flow/alley_1/frame_0029.flo\n'
p811
aS'Sintel/training/flow/alley_1/frame_0030.flo\n'
p812
aS'Sintel/training/flow/alley_1/frame_0031.flo\n'
p813
aS'Sintel/training/flow/alley_1/frame_0032.flo\n'
p814
aS'Sintel/training/flow/alley_1/frame_0033.flo\n'
p815
aS'Sintel/training/flow/alley_1/frame_0034.flo\n'
p816
aS'Sintel/training/flow/alley_1/frame_0035.flo\n'
p817
aS'Sintel/training/flow/alley_1/frame_0036.flo\n'
p818
aS'Sintel/training/flow/alley_1/frame_0037.flo\n'
p819
aS'Sintel/training/flow/alley_1/frame_0038.flo\n'
p820
aS'Sintel/training/flow/alley_1/frame_0039.flo\n'
p821
aS'Sintel/training/flow/alley_1/frame_0040.flo\n'
p822
aS'Sintel/training/flow/alley_1/frame_0041.flo\n'
p823
aS'Sintel/training/flow/alley_1/frame_0042.flo\n'
p824
aS'Sintel/training/flow/alley_1/frame_0043.flo\n'
p825
aS'Sintel/training/flow/alley_1/frame_0044.flo\n'
p826
aS'Sintel/training/flow/alley_1/frame_0045.flo\n'
p827
aS'Sintel/training/flow/alley_1/frame_0046.flo\n'
p828
aS'Sintel/training/flow/alley_1/frame_0047.flo\n'
p829
aS'Sintel/training/flow/alley_1/frame_0048.flo\n'
p830
aS'Sintel/training/flow/alley_1/frame_0049.flo\n'
p831
aa(lp832
S'Sintel/training/flow/shaman_2/frame_0001.flo\n'
p833
aS'Sintel/training/flow/shaman_2/frame_0002.flo\n'
p834
aS'Sintel/training/flow/shaman_2/frame_0003.flo\n'
p835
aS'Sintel/training/flow/shaman_2/frame_0004.flo\n'
p836
aS'Sintel/training/flow/shaman_2/frame_0005.flo\n'
p837
aS'Sintel/training/flow/shaman_2/frame_0006.flo\n'
p838
aS'Sintel/training/flow/shaman_2/frame_0007.flo\n'
p839
aS'Sintel/training/flow/shaman_2/frame_0008.flo\n'
p840
aS'Sintel/training/flow/shaman_2/frame_0009.flo\n'
p841
aS'Sintel/training/flow/shaman_2/frame_0010.flo\n'
p842
aS'Sintel/training/flow/shaman_2/frame_0011.flo\n'
p843
aS'Sintel/training/flow/shaman_2/frame_0012.flo\n'
p844
aS'Sintel/training/flow/shaman_2/frame_0013.flo\n'
p845
aS'Sintel/training/flow/shaman_2/frame_0014.flo\n'
p846
aS'Sintel/training/flow/shaman_2/frame_0015.flo\n'
p847
aS'Sintel/training/flow/shaman_2/frame_0016.flo\n'
p848
aS'Sintel/training/flow/shaman_2/frame_0017.flo\n'
p849
aS'Sintel/training/flow/shaman_2/frame_0018.flo\n'
p850
aS'Sintel/training/flow/shaman_2/frame_0019.flo\n'
p851
aS'Sintel/training/flow/shaman_2/frame_0020.flo\n'
p852
aS'Sintel/training/flow/shaman_2/frame_0021.flo\n'
p853
aS'Sintel/training/flow/shaman_2/frame_0022.flo\n'
p854
aS'Sintel/training/flow/shaman_2/frame_0023.flo\n'
p855
aS'Sintel/training/flow/shaman_2/frame_0024.flo\n'
p856
aS'Sintel/training/flow/shaman_2/frame_0025.flo\n'
p857
aS'Sintel/training/flow/shaman_2/frame_0026.flo\n'
p858
aS'Sintel/training/flow/shaman_2/frame_0027.flo\n'
p859
aS'Sintel/training/flow/shaman_2/frame_0028.flo\n'
p860
aS'Sintel/training/flow/shaman_2/frame_0029.flo\n'
p861
aS'Sintel/training/flow/shaman_2/frame_0030.flo\n'
p862
aS'Sintel/training/flow/shaman_2/frame_0031.flo\n'
p863
aS'Sintel/training/flow/shaman_2/frame_0032.flo\n'
p864
aS'Sintel/training/flow/shaman_2/frame_0033.flo\n'
p865
aS'Sintel/training/flow/shaman_2/frame_0034.flo\n'
p866
aS'Sintel/training/flow/shaman_2/frame_0035.flo\n'
p867
aS'Sintel/training/flow/shaman_2/frame_0036.flo\n'
p868
aS'Sintel/training/flow/shaman_2/frame_0037.flo\n'
p869
aS'Sintel/training/flow/shaman_2/frame_0038.flo\n'
p870
aS'Sintel/training/flow/shaman_2/frame_0039.flo\n'
p871
aS'Sintel/training/flow/shaman_2/frame_0040.flo\n'
p872
aS'Sintel/training/flow/shaman_2/frame_0041.flo\n'
p873
aS'Sintel/training/flow/shaman_2/frame_0042.flo\n'
p874
aS'Sintel/training/flow/shaman_2/frame_0043.flo\n'
p875
aS'Sintel/training/flow/shaman_2/frame_0044.flo\n'
p876
aS'Sintel/training/flow/shaman_2/frame_0045.flo\n'
p877
aS'Sintel/training/flow/shaman_2/frame_0046.flo\n'
p878
aS'Sintel/training/flow/shaman_2/frame_0047.flo\n'
p879
aS'Sintel/training/flow/shaman_2/frame_0048.flo\n'
p880
aS'Sintel/training/flow/shaman_2/frame_0049.flo\n'
p881
aa(lp882
S'Sintel/training/flow/bamboo_1/frame_0001.flo\n'
p883
aS'Sintel/training/flow/bamboo_1/frame_0002.flo\n'
p884
aS'Sintel/training/flow/bamboo_1/frame_0003.flo\n'
p885
aS'Sintel/training/flow/bamboo_1/frame_0004.flo\n'
p886
aS'Sintel/training/flow/bamboo_1/frame_0005.flo\n'
p887
aS'Sintel/training/flow/bamboo_1/frame_0006.flo\n'
p888
aS'Sintel/training/flow/bamboo_1/frame_0007.flo\n'
p889
aS'Sintel/training/flow/bamboo_1/frame_0008.flo\n'
p890
aS'Sintel/training/flow/bamboo_1/frame_0009.flo\n'
p891
aS'Sintel/training/flow/bamboo_1/frame_0010.flo\n'
p892
aS'Sintel/training/flow/bamboo_1/frame_0011.flo\n'
p893
aS'Sintel/training/flow/bamboo_1/frame_0012.flo\n'
p894
aS'Sintel/training/flow/bamboo_1/frame_0013.flo\n'
p895
aS'Sintel/training/flow/bamboo_1/frame_0014.flo\n'
p896
aS'Sintel/training/flow/bamboo_1/frame_0015.flo\n'
p897
aS'Sintel/training/flow/bamboo_1/frame_0016.flo\n'
p898
aS'Sintel/training/flow/bamboo_1/frame_0017.flo\n'
p899
aS'Sintel/training/flow/bamboo_1/frame_0018.flo\n'
p900
aS'Sintel/training/flow/bamboo_1/frame_0019.flo\n'
p901
aS'Sintel/training/flow/bamboo_1/frame_0020.flo\n'
p902
aS'Sintel/training/flow/bamboo_1/frame_0021.flo\n'
p903
aS'Sintel/training/flow/bamboo_1/frame_0022.flo\n'
p904
aS'Sintel/training/flow/bamboo_1/frame_0023.flo\n'
p905
aS'Sintel/training/flow/bamboo_1/frame_0024.flo\n'
p906
aS'Sintel/training/flow/bamboo_1/frame_0025.flo\n'
p907
aS'Sintel/training/flow/bamboo_1/frame_0026.flo\n'
p908
aS'Sintel/training/flow/bamboo_1/frame_0027.flo\n'
p909
aS'Sintel/training/flow/bamboo_1/frame_0028.flo\n'
p910
aS'Sintel/training/flow/bamboo_1/frame_0029.flo\n'
p911
aS'Sintel/training/flow/bamboo_1/frame_0030.flo\n'
p912
aS'Sintel/training/flow/bamboo_1/frame_0031.flo\n'
p913
aS'Sintel/training/flow/bamboo_1/frame_0032.flo\n'
p914
aS'Sintel/training/flow/bamboo_1/frame_0033.flo\n'
p915
aS'Sintel/training/flow/bamboo_1/frame_0034.flo\n'
p916
aS'Sintel/training/flow/bamboo_1/frame_0035.flo\n'
p917
aS'Sintel/training/flow/bamboo_1/frame_0036.flo\n'
p918
aS'Sintel/training/flow/bamboo_1/frame_0037.flo\n'
p919
aS'Sintel/training/flow/bamboo_1/frame_0038.flo\n'
p920
aS'Sintel/training/flow/bamboo_1/frame_0039.flo\n'
p921
aS'Sintel/training/flow/bamboo_1/frame_0040.flo\n'
p922
aS'Sintel/training/flow/bamboo_1/frame_0041.flo\n'
p923
aS'Sintel/training/flow/bamboo_1/frame_0042.flo\n'
p924
aS'Sintel/training/flow/bamboo_1/frame_0043.flo\n'
p925
aS'Sintel/training/flow/bamboo_1/frame_0044.flo\n'
p926
aS'Sintel/training/flow/bamboo_1/frame_0045.flo\n'
p927
aS'Sintel/training/flow/bamboo_1/frame_0046.flo\n'
p928
aS'Sintel/training/flow/bamboo_1/frame_0047.flo\n'
p929
aS'Sintel/training/flow/bamboo_1/frame_0048.flo\n'
p930
aS'Sintel/training/flow/bamboo_1/frame_0049.flo\n'
p931
aa(lp932
S'Sintel/training/flow/ambush_4/frame_0001.flo\n'
p933
aS'Sintel/training/flow/ambush_4/frame_0002.flo\n'
p934
aS'Sintel/training/flow/ambush_4/frame_0003.flo\n'
p935
aS'Sintel/training/flow/ambush_4/frame_0004.flo\n'
p936
aS'Sintel/training/flow/ambush_4/frame_0005.flo\n'
p937
aS'Sintel/training/flow/ambush_4/frame_0006.flo\n'
p938
aS'Sintel/training/flow/ambush_4/frame_0007.flo\n'
p939
aS'Sintel/training/flow/ambush_4/frame_0008.flo\n'
p940
aS'Sintel/training/flow/ambush_4/frame_0009.flo\n'
p941
aS'Sintel/training/flow/ambush_4/frame_0010.flo\n'
p942
aS'Sintel/training/flow/ambush_4/frame_0011.flo\n'
p943
aS'Sintel/training/flow/ambush_4/frame_0012.flo\n'
p944
aS'Sintel/training/flow/ambush_4/frame_0013.flo\n'
p945
aS'Sintel/training/flow/ambush_4/frame_0014.flo\n'
p946
aS'Sintel/training/flow/ambush_4/frame_0015.flo\n'
p947
aS'Sintel/training/flow/ambush_4/frame_0016.flo\n'
p948
aS'Sintel/training/flow/ambush_4/frame_0017.flo\n'
p949
aS'Sintel/training/flow/ambush_4/frame_0018.flo\n'
p950
aS'Sintel/training/flow/ambush_4/frame_0019.flo\n'
p951
aS'Sintel/training/flow/ambush_4/frame_0020.flo\n'
p952
aS'Sintel/training/flow/ambush_4/frame_0021.flo\n'
p953
aS'Sintel/training/flow/ambush_4/frame_0022.flo\n'
p954
aS'Sintel/training/flow/ambush_4/frame_0023.flo\n'
p955
aS'Sintel/training/flow/ambush_4/frame_0024.flo\n'
p956
aS'Sintel/training/flow/ambush_4/frame_0025.flo\n'
p957
aS'Sintel/training/flow/ambush_4/frame_0026.flo\n'
p958
aS'Sintel/training/flow/ambush_4/frame_0027.flo\n'
p959
aS'Sintel/training/flow/ambush_4/frame_0028.flo\n'
p960
aS'Sintel/training/flow/ambush_4/frame_0029.flo\n'
p961
aS'Sintel/training/flow/ambush_4/frame_0030.flo\n'
p962
aS'Sintel/training/flow/ambush_4/frame_0031.flo\n'
p963
aS'Sintel/training/flow/ambush_4/frame_0032.flo\n'
p964
aa(lp965
S'Sintel/training/flow/bamboo_2/frame_0001.flo\n'
p966
aS'Sintel/training/flow/bamboo_2/frame_0002.flo\n'
p967
aS'Sintel/training/flow/bamboo_2/frame_0003.flo\n'
p968
aS'Sintel/training/flow/bamboo_2/frame_0004.flo\n'
p969
aS'Sintel/training/flow/bamboo_2/frame_0005.flo\n'
p970
aS'Sintel/training/flow/bamboo_2/frame_0006.flo\n'
p971
aS'Sintel/training/flow/bamboo_2/frame_0007.flo\n'
p972
aS'Sintel/training/flow/bamboo_2/frame_0008.flo\n'
p973
aS'Sintel/training/flow/bamboo_2/frame_0009.flo\n'
p974
aS'Sintel/training/flow/bamboo_2/frame_0010.flo\n'
p975
aS'Sintel/training/flow/bamboo_2/frame_0011.flo\n'
p976
aS'Sintel/training/flow/bamboo_2/frame_0012.flo\n'
p977
aS'Sintel/training/flow/bamboo_2/frame_0013.flo\n'
p978
aS'Sintel/training/flow/bamboo_2/frame_0014.flo\n'
p979
aS'Sintel/training/flow/bamboo_2/frame_0015.flo\n'
p980
aS'Sintel/training/flow/bamboo_2/frame_0016.flo\n'
p981
aS'Sintel/training/flow/bamboo_2/frame_0017.flo\n'
p982
aS'Sintel/training/flow/bamboo_2/frame_0018.flo\n'
p983
aS'Sintel/training/flow/bamboo_2/frame_0019.flo\n'
p984
aS'Sintel/training/flow/bamboo_2/frame_0020.flo\n'
p985
aS'Sintel/training/flow/bamboo_2/frame_0021.flo\n'
p986
aS'Sintel/training/flow/bamboo_2/frame_0022.flo\n'
p987
aS'Sintel/training/flow/bamboo_2/frame_0023.flo\n'
p988
aS'Sintel/training/flow/bamboo_2/frame_0024.flo\n'
p989
aS'Sintel/training/flow/bamboo_2/frame_0025.flo\n'
p990
aS'Sintel/training/flow/bamboo_2/frame_0026.flo\n'
p991
aS'Sintel/training/flow/bamboo_2/frame_0027.flo\n'
p992
aS'Sintel/training/flow/bamboo_2/frame_0028.flo\n'
p993
aS'Sintel/training/flow/bamboo_2/frame_0029.flo\n'
p994
aS'Sintel/training/flow/bamboo_2/frame_0030.flo\n'
p995
aS'Sintel/training/flow/bamboo_2/frame_0031.flo\n'
p996
aS'Sintel/training/flow/bamboo_2/frame_0032.flo\n'
p997
aS'Sintel/training/flow/bamboo_2/frame_0033.flo\n'
p998
aS'Sintel/training/flow/bamboo_2/frame_0034.flo\n'
p999
aS'Sintel/training/flow/bamboo_2/frame_0035.flo\n'
p1000
aS'Sintel/training/flow/bamboo_2/frame_0036.flo\n'
p1001
aS'Sintel/training/flow/bamboo_2/frame_0037.flo\n'
p1002
aS'Sintel/training/flow/bamboo_2/frame_0038.flo\n'
p1003
aS'Sintel/training/flow/bamboo_2/frame_0039.flo\n'
p1004
aS'Sintel/training/flow/bamboo_2/frame_0040.flo\n'
p1005
aS'Sintel/training/flow/bamboo_2/frame_0041.flo\n'
p1006
aS'Sintel/training/flow/bamboo_2/frame_0042.flo\n'
p1007
aS'Sintel/training/flow/bamboo_2/frame_0043.flo\n'
p1008
aS'Sintel/training/flow/bamboo_2/frame_0044.flo\n'
p1009
aS'Sintel/training/flow/bamboo_2/frame_0045.flo\n'
p1010
aS'Sintel/training/flow/bamboo_2/frame_0046.flo\n'
p1011
aS'Sintel/training/flow/bamboo_2/frame_0047.flo\n'
p1012
aS'Sintel/training/flow/bamboo_2/frame_0048.flo\n'
p1013
aS'Sintel/training/flow/bamboo_2/frame_0049.flo\n'
p1014
aa(lp1015
S'Sintel/training/flow/sleeping_1/frame_0001.flo\n'
p1016
aS'Sintel/training/flow/sleeping_1/frame_0002.flo\n'
p1017
aS'Sintel/training/flow/sleeping_1/frame_0003.flo\n'
p1018
aS'Sintel/training/flow/sleeping_1/frame_0004.flo\n'
p1019
aS'Sintel/training/flow/sleeping_1/frame_0005.flo\n'
p1020
aS'Sintel/training/flow/sleeping_1/frame_0006.flo\n'
p1021
aS'Sintel/training/flow/sleeping_1/frame_0007.flo\n'
p1022
aS'Sintel/training/flow/sleeping_1/frame_0008.flo\n'
p1023
aS'Sintel/training/flow/sleeping_1/frame_0009.flo\n'
p1024
aS'Sintel/training/flow/sleeping_1/frame_0010.flo\n'
p1025
aS'Sintel/training/flow/sleeping_1/frame_0011.flo\n'
p1026
aS'Sintel/training/flow/sleeping_1/frame_0012.flo\n'
p1027
aS'Sintel/training/flow/sleeping_1/frame_0013.flo\n'
p1028
aS'Sintel/training/flow/sleeping_1/frame_0014.flo\n'
p1029
aS'Sintel/training/flow/sleeping_1/frame_0015.flo\n'
p1030
aS'Sintel/training/flow/sleeping_1/frame_0016.flo\n'
p1031
aS'Sintel/training/flow/sleeping_1/frame_0017.flo\n'
p1032
aS'Sintel/training/flow/sleeping_1/frame_0018.flo\n'
p1033
aS'Sintel/training/flow/sleeping_1/frame_0019.flo\n'
p1034
aS'Sintel/training/flow/sleeping_1/frame_0020.flo\n'
p1035
aS'Sintel/training/flow/sleeping_1/frame_0021.flo\n'
p1036
aS'Sintel/training/flow/sleeping_1/frame_0022.flo\n'
p1037
aS'Sintel/training/flow/sleeping_1/frame_0023.flo\n'
p1038
aS'Sintel/training/flow/sleeping_1/frame_0024.flo\n'
p1039
aS'Sintel/training/flow/sleeping_1/frame_0025.flo\n'
p1040
aS'Sintel/training/flow/sleeping_1/frame_0026.flo\n'
p1041
aS'Sintel/training/flow/sleeping_1/frame_0027.flo\n'
p1042
aS'Sintel/training/flow/sleeping_1/frame_0028.flo\n'
p1043
aS'Sintel/training/flow/sleeping_1/frame_0029.flo\n'
p1044
aS'Sintel/training/flow/sleeping_1/frame_0030.flo\n'
p1045
aS'Sintel/training/flow/sleeping_1/frame_0031.flo\n'
p1046
aS'Sintel/training/flow/sleeping_1/frame_0032.flo\n'
p1047
aS'Sintel/training/flow/sleeping_1/frame_0033.flo\n'
p1048
aS'Sintel/training/flow/sleeping_1/frame_0034.flo\n'
p1049
aS'Sintel/training/flow/sleeping_1/frame_0035.flo\n'
p1050
aS'Sintel/training/flow/sleeping_1/frame_0036.flo\n'
p1051
aS'Sintel/training/flow/sleeping_1/frame_0037.flo\n'
p1052
aS'Sintel/training/flow/sleeping_1/frame_0038.flo\n'
p1053
aS'Sintel/training/flow/sleeping_1/frame_0039.flo\n'
p1054
aS'Sintel/training/flow/sleeping_1/frame_0040.flo\n'
p1055
aS'Sintel/training/flow/sleeping_1/frame_0041.flo\n'
p1056
aS'Sintel/training/flow/sleeping_1/frame_0042.flo\n'
p1057
aS'Sintel/training/flow/sleeping_1/frame_0043.flo\n'
p1058
aS'Sintel/training/flow/sleeping_1/frame_0044.flo\n'
p1059
aS'Sintel/training/flow/sleeping_1/frame_0045.flo\n'
p1060
aS'Sintel/training/flow/sleeping_1/frame_0046.flo\n'
p1061
aS'Sintel/training/flow/sleeping_1/frame_0047.flo\n'
p1062
aS'Sintel/training/flow/sleeping_1/frame_0048.flo\n'
p1063
aS'Sintel/training/flow/sleeping_1/frame_0049.flo\n'
p1064
aa.