(lp0
S'ambush_6'
p1
aS'bandage_1'
p2
aS'market_2'
p3
aS'cave_2'
p4
aS'temple_2'
p5
aS'shaman_3'
p6
aS'sleeping_2'
p7
aS'market_6'
p8
aS'cave_4'
p9
aS'ambush_2'
p10
aS'market_5'
p11
aS'alley_2'
p12
aS'ambush_5'
p13
aS'ambush_7'
p14
aS'temple_3'
p15
aS'bandage_2'
p16
aS'mountain_1'
p17
aS'alley_1'
p18
aS'shaman_2'
p19
aS'bamboo_1'
p20
aS'ambush_4'
p21
aS'bamboo_2'
p22
aS'sleeping_1'
p23
a.